
infotainment challenge.elf:     file format elf32-avr

Sections:
Idx Name          Size      VMA       LMA       File off  Algn
  0 .text         00001062  00000000  00000000  00000094  2**1
                  CONTENTS, ALLOC, LOAD, READONLY, CODE
  1 .data         00000086  00800060  00001062  000010f6  2**0
                  CONTENTS, ALLOC, LOAD, DATA
  2 .bss          00000105  008000e6  008000e6  0000117c  2**0
                  ALLOC
  3 .comment      00000030  00000000  00000000  0000117c  2**0
                  CONTENTS, READONLY
  4 .note.gnu.avr.deviceinfo 0000003c  00000000  00000000  000011ac  2**2
                  CONTENTS, READONLY
  5 .debug_aranges 00000218  00000000  00000000  000011e8  2**0
                  CONTENTS, READONLY, DEBUGGING
  6 .debug_info   00002488  00000000  00000000  00001400  2**0
                  CONTENTS, READONLY, DEBUGGING
  7 .debug_abbrev 00000ec9  00000000  00000000  00003888  2**0
                  CONTENTS, READONLY, DEBUGGING
  8 .debug_line   00001016  00000000  00000000  00004751  2**0
                  CONTENTS, READONLY, DEBUGGING
  9 .debug_frame  00000544  00000000  00000000  00005768  2**2
                  CONTENTS, READONLY, DEBUGGING
 10 .debug_str    00000e73  00000000  00000000  00005cac  2**0
                  CONTENTS, READONLY, DEBUGGING
 11 .debug_loc    000012f3  00000000  00000000  00006b1f  2**0
                  CONTENTS, READONLY, DEBUGGING
 12 .debug_ranges 00000170  00000000  00000000  00007e12  2**0
                  CONTENTS, READONLY, DEBUGGING

Disassembly of section .text:

00000000 <__vectors>:
       0:	0c 94 2a 00 	jmp	0x54	; 0x54 <__ctors_end>
       4:	0c 94 47 00 	jmp	0x8e	; 0x8e <__bad_interrupt>
       8:	0c 94 47 00 	jmp	0x8e	; 0x8e <__bad_interrupt>
       c:	0c 94 47 00 	jmp	0x8e	; 0x8e <__bad_interrupt>
      10:	0c 94 9e 07 	jmp	0xf3c	; 0xf3c <__vector_4>
      14:	0c 94 47 00 	jmp	0x8e	; 0x8e <__bad_interrupt>
      18:	0c 94 47 00 	jmp	0x8e	; 0x8e <__bad_interrupt>
      1c:	0c 94 47 00 	jmp	0x8e	; 0x8e <__bad_interrupt>
      20:	0c 94 47 00 	jmp	0x8e	; 0x8e <__bad_interrupt>
      24:	0c 94 47 00 	jmp	0x8e	; 0x8e <__bad_interrupt>
      28:	0c 94 77 07 	jmp	0xeee	; 0xeee <__vector_10>
      2c:	0c 94 47 00 	jmp	0x8e	; 0x8e <__bad_interrupt>
      30:	0c 94 47 00 	jmp	0x8e	; 0x8e <__bad_interrupt>
      34:	0c 94 47 00 	jmp	0x8e	; 0x8e <__bad_interrupt>
      38:	0c 94 47 00 	jmp	0x8e	; 0x8e <__bad_interrupt>
      3c:	0c 94 47 00 	jmp	0x8e	; 0x8e <__bad_interrupt>
      40:	0c 94 47 00 	jmp	0x8e	; 0x8e <__bad_interrupt>
      44:	0c 94 47 00 	jmp	0x8e	; 0x8e <__bad_interrupt>
      48:	0c 94 47 00 	jmp	0x8e	; 0x8e <__bad_interrupt>
      4c:	0c 94 47 00 	jmp	0x8e	; 0x8e <__bad_interrupt>
      50:	0c 94 47 00 	jmp	0x8e	; 0x8e <__bad_interrupt>

00000054 <__ctors_end>:
      54:	11 24       	eor	r1, r1
      56:	1f be       	out	0x3f, r1	; 63
      58:	cf e5       	ldi	r28, 0x5F	; 95
      5a:	d8 e0       	ldi	r29, 0x08	; 8
      5c:	de bf       	out	0x3e, r29	; 62
      5e:	cd bf       	out	0x3d, r28	; 61

00000060 <__do_copy_data>:
      60:	10 e0       	ldi	r17, 0x00	; 0
      62:	a0 e6       	ldi	r26, 0x60	; 96
      64:	b0 e0       	ldi	r27, 0x00	; 0
      66:	e2 e6       	ldi	r30, 0x62	; 98
      68:	f0 e1       	ldi	r31, 0x10	; 16
      6a:	02 c0       	rjmp	.+4      	; 0x70 <__do_copy_data+0x10>
      6c:	05 90       	lpm	r0, Z+
      6e:	0d 92       	st	X+, r0
      70:	a6 3e       	cpi	r26, 0xE6	; 230
      72:	b1 07       	cpc	r27, r17
      74:	d9 f7       	brne	.-10     	; 0x6c <__do_copy_data+0xc>

00000076 <__do_clear_bss>:
      76:	21 e0       	ldi	r18, 0x01	; 1
      78:	a6 ee       	ldi	r26, 0xE6	; 230
      7a:	b0 e0       	ldi	r27, 0x00	; 0
      7c:	01 c0       	rjmp	.+2      	; 0x80 <.do_clear_bss_start>

0000007e <.do_clear_bss_loop>:
      7e:	1d 92       	st	X+, r1

00000080 <.do_clear_bss_start>:
      80:	ab 3e       	cpi	r26, 0xEB	; 235
      82:	b2 07       	cpc	r27, r18
      84:	e1 f7       	brne	.-8      	; 0x7e <.do_clear_bss_loop>
      86:	0e 94 22 05 	call	0xa44	; 0xa44 <main>
      8a:	0c 94 2f 08 	jmp	0x105e	; 0x105e <_exit>

0000008e <__bad_interrupt>:
      8e:	0c 94 00 00 	jmp	0	; 0x0 <__vectors>

00000092 <CPU_enmSleep>:
    else
#endif /* (CPU_ERROR_DETECT == 1) */
    /*........................................*/
    {
        /* IDLE mode */
        CLEAR_BIT(MCUCR_REG, SM0_BIT, uint8_t);
      92:	85 b7       	in	r24, 0x35	; 53
      94:	8f 7e       	andi	r24, 0xEF	; 239
      96:	85 bf       	out	0x35, r24	; 53
        CLEAR_BIT(MCUCR_REG, SM1_BIT, uint8_t);
      98:	85 b7       	in	r24, 0x35	; 53
      9a:	8f 7d       	andi	r24, 0xDF	; 223
      9c:	85 bf       	out	0x35, r24	; 53
        CLEAR_BIT(MCUCR_REG, SM2_BIT, uint8_t);
      9e:	85 b7       	in	r24, 0x35	; 53
      a0:	8f 7b       	andi	r24, 0xBF	; 191
      a2:	85 bf       	out	0x35, r24	; 53
        /* enable sleep mode */
        SET_BIT(MCUCR_REG, SE_BIT, uint8_t);
      a4:	85 b7       	in	r24, 0x35	; 53
      a6:	80 68       	ori	r24, 0x80	; 128
      a8:	85 bf       	out	0x35, r24	; 53
    }
    return Sleep_l_enmReturnValue;
}
      aa:	80 e0       	ldi	r24, 0x00	; 0
      ac:	08 95       	ret

000000ae <DET_vReportError>:
 * example:             none
 *......................................................................................*/
void DET_vReportError(void)
{
    /* to be continued */
	DIO_WritePin(SPRINTS_LED3, DIO_LEVEL_HIGH);
      ae:	61 e0       	ldi	r22, 0x01	; 1
      b0:	8f e0       	ldi	r24, 0x0F	; 15
      b2:	0e 94 58 01 	call	0x2b0	; 0x2b0 <DIO_WritePin>
      b6:	08 95       	ret

000000b8 <DIO_Init>:
static volatile DIO_PinType channel[DIO_NUMBER_OF_ALL_PINS];
/* static function prototype(s) XXXXXXXXXXXXXXXXXXXXXXXXXXXXXXXXXXXXXXXXXXXXXXXXXXXXXXXXXXXXXXXXXXXXXXXXXXXXXXXXXXX*/

/* function definition(s) XXXXXXXXXXXXXXXXXXXXXXXXXXXXXXXXXXXXXXXXXXXXXXXXXXXXXXXXXXXXXXXXXXXXXXXXXXXXXXXXXXXXXXXXX*/
void DIO_Init(void)
{
      b8:	2f 92       	push	r2
      ba:	3f 92       	push	r3
      bc:	4f 92       	push	r4
      be:	5f 92       	push	r5
      c0:	6f 92       	push	r6
      c2:	7f 92       	push	r7
      c4:	8f 92       	push	r8
      c6:	9f 92       	push	r9
      c8:	af 92       	push	r10
      ca:	bf 92       	push	r11
      cc:	cf 92       	push	r12
      ce:	df 92       	push	r13
      d0:	ef 92       	push	r14
      d2:	ff 92       	push	r15
      d4:	0f 93       	push	r16
      d6:	1f 93       	push	r17
      d8:	cf 93       	push	r28
      da:	df 93       	push	r29
      dc:	80 e0       	ldi	r24, 0x00	; 0
      de:	90 e0       	ldi	r25, 0x00	; 0
				channel[i].PortRegAddr = (uint8_t*) PORTA_ADDR;
				channel[i].PinRegAddr = (uint8_t*) PINA_ADDR;
				channel[i].DirRegAddr = (uint8_t*) DDRA_ADDR;
			break;
			case DIO_PORTB:
				channel[i].PortRegAddr = (uint8_t*) PORTB_ADDR;
      e0:	0f 2e       	mov	r0, r31
      e2:	f8 e3       	ldi	r31, 0x38	; 56
      e4:	cf 2e       	mov	r12, r31
      e6:	d1 2c       	mov	r13, r1
      e8:	f0 2d       	mov	r31, r0
				channel[i].PinRegAddr = (uint8_t*) PINB_ADDR;
      ea:	0f 2e       	mov	r0, r31
      ec:	f6 e3       	ldi	r31, 0x36	; 54
      ee:	ef 2e       	mov	r14, r31
      f0:	f1 2c       	mov	r15, r1
      f2:	f0 2d       	mov	r31, r0
				channel[i].DirRegAddr = (uint8_t*) DDRB_ADDR;
      f4:	07 e3       	ldi	r16, 0x37	; 55
      f6:	10 e0       	ldi	r17, 0x00	; 0
	for(i=0; i<DIO_NUMBER_OF_ALL_PINS; i++)
	{
		switch(i/DIO_NUMBER_OF_PORT_PINS)
		{
			case DIO_PORTA:
				channel[i].PortRegAddr = (uint8_t*) PORTA_ADDR;
      f8:	cb e3       	ldi	r28, 0x3B	; 59
      fa:	d0 e0       	ldi	r29, 0x00	; 0
				channel[i].PinRegAddr = (uint8_t*) PINA_ADDR;
      fc:	a9 e3       	ldi	r26, 0x39	; 57
      fe:	b0 e0       	ldi	r27, 0x00	; 0
				channel[i].DirRegAddr = (uint8_t*) DDRA_ADDR;
     100:	6a e3       	ldi	r22, 0x3A	; 58
     102:	70 e0       	ldi	r23, 0x00	; 0
				channel[i].PortRegAddr = (uint8_t*) PORTB_ADDR;
				channel[i].PinRegAddr = (uint8_t*) PINB_ADDR;
				channel[i].DirRegAddr = (uint8_t*) DDRB_ADDR;
			break;
			case DIO_PORTC:
				channel[i].PortRegAddr = (uint8_t*) PORTC_ADDR;
     104:	45 e3       	ldi	r20, 0x35	; 53
     106:	50 e0       	ldi	r21, 0x00	; 0
				channel[i].PinRegAddr = (uint8_t*) PINC_ADDR;
     108:	0f 2e       	mov	r0, r31
     10a:	f3 e3       	ldi	r31, 0x33	; 51
     10c:	af 2e       	mov	r10, r31
     10e:	b1 2c       	mov	r11, r1
     110:	f0 2d       	mov	r31, r0
				channel[i].DirRegAddr = (uint8_t*) DDRC_ADDR;
     112:	0f 2e       	mov	r0, r31
     114:	f4 e3       	ldi	r31, 0x34	; 52
     116:	8f 2e       	mov	r8, r31
     118:	91 2c       	mov	r9, r1
     11a:	f0 2d       	mov	r31, r0
			break;
			case DIO_PORTD:
				channel[i].PortRegAddr = (uint8_t*) PORTD_ADDR;
     11c:	0f 2e       	mov	r0, r31
     11e:	f2 e3       	ldi	r31, 0x32	; 50
     120:	6f 2e       	mov	r6, r31
     122:	71 2c       	mov	r7, r1
     124:	f0 2d       	mov	r31, r0
				channel[i].PinRegAddr = (uint8_t*) PIND_ADDR;
     126:	0f 2e       	mov	r0, r31
     128:	f0 e3       	ldi	r31, 0x30	; 48
     12a:	4f 2e       	mov	r4, r31
     12c:	51 2c       	mov	r5, r1
     12e:	f0 2d       	mov	r31, r0
				channel[i].DirRegAddr = (uint8_t*) DDRD_ADDR;
     130:	0f 2e       	mov	r0, r31
     132:	f1 e3       	ldi	r31, 0x31	; 49
     134:	2f 2e       	mov	r2, r31
     136:	31 2c       	mov	r3, r1
     138:	f0 2d       	mov	r31, r0
     13a:	28 2f       	mov	r18, r24
void DIO_Init(void)
{
	uint8_t i;
	for(i=0; i<DIO_NUMBER_OF_ALL_PINS; i++)
	{
		switch(i/DIO_NUMBER_OF_PORT_PINS)
     13c:	38 2f       	mov	r19, r24
     13e:	36 95       	lsr	r19
     140:	36 95       	lsr	r19
     142:	36 95       	lsr	r19
     144:	31 30       	cpi	r19, 0x01	; 1
     146:	c1 f0       	breq	.+48     	; 0x178 <DIO_Init+0xc0>
     148:	28 f0       	brcs	.+10     	; 0x154 <DIO_Init+0x9c>
     14a:	32 30       	cpi	r19, 0x02	; 2
     14c:	39 f1       	breq	.+78     	; 0x19c <DIO_Init+0xe4>
     14e:	33 30       	cpi	r19, 0x03	; 3
     150:	b9 f1       	breq	.+110    	; 0x1c0 <DIO_Init+0x108>
     152:	47 c0       	rjmp	.+142    	; 0x1e2 <DIO_Init+0x12a>
		{
			case DIO_PORTA:
				channel[i].PortRegAddr = (uint8_t*) PORTA_ADDR;
     154:	fc 01       	movw	r30, r24
     156:	ee 0f       	add	r30, r30
     158:	ff 1f       	adc	r31, r31
     15a:	ee 0f       	add	r30, r30
     15c:	ff 1f       	adc	r31, r31
     15e:	ee 0f       	add	r30, r30
     160:	ff 1f       	adc	r31, r31
     162:	e8 1b       	sub	r30, r24
     164:	f9 0b       	sbc	r31, r25
     166:	ea 51       	subi	r30, 0x1A	; 26
     168:	ff 4f       	sbci	r31, 0xFF	; 255
     16a:	d3 83       	std	Z+3, r29	; 0x03
     16c:	c2 83       	std	Z+2, r28	; 0x02
				channel[i].PinRegAddr = (uint8_t*) PINA_ADDR;
     16e:	b5 83       	std	Z+5, r27	; 0x05
     170:	a4 83       	std	Z+4, r26	; 0x04
				channel[i].DirRegAddr = (uint8_t*) DDRA_ADDR;
     172:	71 83       	std	Z+1, r23	; 0x01
     174:	60 83       	st	Z, r22
			break;
     176:	35 c0       	rjmp	.+106    	; 0x1e2 <DIO_Init+0x12a>
			case DIO_PORTB:
				channel[i].PortRegAddr = (uint8_t*) PORTB_ADDR;
     178:	fc 01       	movw	r30, r24
     17a:	ee 0f       	add	r30, r30
     17c:	ff 1f       	adc	r31, r31
     17e:	ee 0f       	add	r30, r30
     180:	ff 1f       	adc	r31, r31
     182:	ee 0f       	add	r30, r30
     184:	ff 1f       	adc	r31, r31
     186:	e8 1b       	sub	r30, r24
     188:	f9 0b       	sbc	r31, r25
     18a:	ea 51       	subi	r30, 0x1A	; 26
     18c:	ff 4f       	sbci	r31, 0xFF	; 255
     18e:	d3 82       	std	Z+3, r13	; 0x03
     190:	c2 82       	std	Z+2, r12	; 0x02
				channel[i].PinRegAddr = (uint8_t*) PINB_ADDR;
     192:	f5 82       	std	Z+5, r15	; 0x05
     194:	e4 82       	std	Z+4, r14	; 0x04
				channel[i].DirRegAddr = (uint8_t*) DDRB_ADDR;
     196:	11 83       	std	Z+1, r17	; 0x01
     198:	00 83       	st	Z, r16
			break;
     19a:	23 c0       	rjmp	.+70     	; 0x1e2 <DIO_Init+0x12a>
			case DIO_PORTC:
				channel[i].PortRegAddr = (uint8_t*) PORTC_ADDR;
     19c:	fc 01       	movw	r30, r24
     19e:	ee 0f       	add	r30, r30
     1a0:	ff 1f       	adc	r31, r31
     1a2:	ee 0f       	add	r30, r30
     1a4:	ff 1f       	adc	r31, r31
     1a6:	ee 0f       	add	r30, r30
     1a8:	ff 1f       	adc	r31, r31
     1aa:	e8 1b       	sub	r30, r24
     1ac:	f9 0b       	sbc	r31, r25
     1ae:	ea 51       	subi	r30, 0x1A	; 26
     1b0:	ff 4f       	sbci	r31, 0xFF	; 255
     1b2:	53 83       	std	Z+3, r21	; 0x03
     1b4:	42 83       	std	Z+2, r20	; 0x02
				channel[i].PinRegAddr = (uint8_t*) PINC_ADDR;
     1b6:	b5 82       	std	Z+5, r11	; 0x05
     1b8:	a4 82       	std	Z+4, r10	; 0x04
				channel[i].DirRegAddr = (uint8_t*) DDRC_ADDR;
     1ba:	91 82       	std	Z+1, r9	; 0x01
     1bc:	80 82       	st	Z, r8
			break;
     1be:	11 c0       	rjmp	.+34     	; 0x1e2 <DIO_Init+0x12a>
			case DIO_PORTD:
				channel[i].PortRegAddr = (uint8_t*) PORTD_ADDR;
     1c0:	fc 01       	movw	r30, r24
     1c2:	ee 0f       	add	r30, r30
     1c4:	ff 1f       	adc	r31, r31
     1c6:	ee 0f       	add	r30, r30
     1c8:	ff 1f       	adc	r31, r31
     1ca:	ee 0f       	add	r30, r30
     1cc:	ff 1f       	adc	r31, r31
     1ce:	e8 1b       	sub	r30, r24
     1d0:	f9 0b       	sbc	r31, r25
     1d2:	ea 51       	subi	r30, 0x1A	; 26
     1d4:	ff 4f       	sbci	r31, 0xFF	; 255
     1d6:	73 82       	std	Z+3, r7	; 0x03
     1d8:	62 82       	std	Z+2, r6	; 0x02
				channel[i].PinRegAddr = (uint8_t*) PIND_ADDR;
     1da:	55 82       	std	Z+5, r5	; 0x05
     1dc:	44 82       	std	Z+4, r4	; 0x04
				channel[i].DirRegAddr = (uint8_t*) DDRD_ADDR;
     1de:	31 82       	std	Z+1, r3	; 0x01
     1e0:	20 82       	st	Z, r2
			break;
		}
		channel[i].PinIndex = i%DIO_NUMBER_OF_PORT_PINS;
     1e2:	27 70       	andi	r18, 0x07	; 7
     1e4:	fc 01       	movw	r30, r24
     1e6:	ee 0f       	add	r30, r30
     1e8:	ff 1f       	adc	r31, r31
     1ea:	ee 0f       	add	r30, r30
     1ec:	ff 1f       	adc	r31, r31
     1ee:	ee 0f       	add	r30, r30
     1f0:	ff 1f       	adc	r31, r31
     1f2:	e8 1b       	sub	r30, r24
     1f4:	f9 0b       	sbc	r31, r25
     1f6:	ea 51       	subi	r30, 0x1A	; 26
     1f8:	ff 4f       	sbci	r31, 0xFF	; 255
     1fa:	26 83       	std	Z+6, r18	; 0x06
     1fc:	01 96       	adiw	r24, 0x01	; 1

/* function definition(s) XXXXXXXXXXXXXXXXXXXXXXXXXXXXXXXXXXXXXXXXXXXXXXXXXXXXXXXXXXXXXXXXXXXXXXXXXXXXXXXXXXXXXXXXX*/
void DIO_Init(void)
{
	uint8_t i;
	for(i=0; i<DIO_NUMBER_OF_ALL_PINS; i++)
     1fe:	80 32       	cpi	r24, 0x20	; 32
     200:	91 05       	cpc	r25, r1
     202:	09 f0       	breq	.+2      	; 0x206 <DIO_Init+0x14e>
     204:	9a cf       	rjmp	.-204    	; 0x13a <DIO_Init+0x82>
				channel[i].DirRegAddr = (uint8_t*) DDRD_ADDR;
			break;
		}
		channel[i].PinIndex = i%DIO_NUMBER_OF_PORT_PINS;
	}
}
     206:	df 91       	pop	r29
     208:	cf 91       	pop	r28
     20a:	1f 91       	pop	r17
     20c:	0f 91       	pop	r16
     20e:	ff 90       	pop	r15
     210:	ef 90       	pop	r14
     212:	df 90       	pop	r13
     214:	cf 90       	pop	r12
     216:	bf 90       	pop	r11
     218:	af 90       	pop	r10
     21a:	9f 90       	pop	r9
     21c:	8f 90       	pop	r8
     21e:	7f 90       	pop	r7
     220:	6f 90       	pop	r6
     222:	5f 90       	pop	r5
     224:	4f 90       	pop	r4
     226:	3f 90       	pop	r3
     228:	2f 90       	pop	r2
     22a:	08 95       	ret

0000022c <DIO_SetPinDirection>:
void DIO_SetPinDirection(uint8_t PinNum,uint8_t PinDirection)
{
	if(DIO_DIR_IN == PinDirection)
     22c:	61 11       	cpse	r22, r1
     22e:	16 c0       	rjmp	.+44     	; 0x25c <DIO_SetPinDirection+0x30>
	{
		CLEAR_BIT(*(channel[PinNum].DirRegAddr), (channel[PinNum].PinIndex), uint8_t);
     230:	97 e0       	ldi	r25, 0x07	; 7
     232:	89 9f       	mul	r24, r25
     234:	f0 01       	movw	r30, r0
     236:	11 24       	eor	r1, r1
     238:	ea 51       	subi	r30, 0x1A	; 26
     23a:	ff 4f       	sbci	r31, 0xFF	; 255
     23c:	36 81       	ldd	r19, Z+6	; 0x06
     23e:	01 90       	ld	r0, Z+
     240:	f0 81       	ld	r31, Z
     242:	e0 2d       	mov	r30, r0
     244:	20 81       	ld	r18, Z
     246:	81 e0       	ldi	r24, 0x01	; 1
     248:	90 e0       	ldi	r25, 0x00	; 0
     24a:	02 c0       	rjmp	.+4      	; 0x250 <DIO_SetPinDirection+0x24>
     24c:	88 0f       	add	r24, r24
     24e:	99 1f       	adc	r25, r25
     250:	3a 95       	dec	r19
     252:	e2 f7       	brpl	.-8      	; 0x24c <DIO_SetPinDirection+0x20>
     254:	80 95       	com	r24
     256:	82 23       	and	r24, r18
     258:	80 83       	st	Z, r24
     25a:	08 95       	ret
	}
	else if(DIO_DIR_OUT == PinDirection)
     25c:	61 30       	cpi	r22, 0x01	; 1
     25e:	a1 f4       	brne	.+40     	; 0x288 <DIO_SetPinDirection+0x5c>
	{
		SET_BIT(*(channel[PinNum].DirRegAddr), (channel[PinNum].PinIndex), uint8_t);
     260:	97 e0       	ldi	r25, 0x07	; 7
     262:	89 9f       	mul	r24, r25
     264:	f0 01       	movw	r30, r0
     266:	11 24       	eor	r1, r1
     268:	ea 51       	subi	r30, 0x1A	; 26
     26a:	ff 4f       	sbci	r31, 0xFF	; 255
     26c:	36 81       	ldd	r19, Z+6	; 0x06
     26e:	01 90       	ld	r0, Z+
     270:	f0 81       	ld	r31, Z
     272:	e0 2d       	mov	r30, r0
     274:	20 81       	ld	r18, Z
     276:	81 e0       	ldi	r24, 0x01	; 1
     278:	90 e0       	ldi	r25, 0x00	; 0
     27a:	02 c0       	rjmp	.+4      	; 0x280 <DIO_SetPinDirection+0x54>
     27c:	88 0f       	add	r24, r24
     27e:	99 1f       	adc	r25, r25
     280:	3a 95       	dec	r19
     282:	e2 f7       	brpl	.-8      	; 0x27c <DIO_SetPinDirection+0x50>
     284:	82 2b       	or	r24, r18
     286:	80 83       	st	Z, r24
     288:	08 95       	ret

0000028a <DIO_ReadPin>:
	}
}
uint8_t DIO_ReadPin(uint8_t PinNum)
{
	return GET_BIT(*(channel[PinNum].PinRegAddr), (channel[PinNum].PinIndex), uint8_t);
     28a:	27 e0       	ldi	r18, 0x07	; 7
     28c:	82 9f       	mul	r24, r18
     28e:	c0 01       	movw	r24, r0
     290:	11 24       	eor	r1, r1
     292:	fc 01       	movw	r30, r24
     294:	ea 51       	subi	r30, 0x1A	; 26
     296:	ff 4f       	sbci	r31, 0xFF	; 255
     298:	a4 81       	ldd	r26, Z+4	; 0x04
     29a:	b5 81       	ldd	r27, Z+5	; 0x05
     29c:	8c 91       	ld	r24, X
     29e:	26 81       	ldd	r18, Z+6	; 0x06
     2a0:	90 e0       	ldi	r25, 0x00	; 0
     2a2:	02 c0       	rjmp	.+4      	; 0x2a8 <DIO_ReadPin+0x1e>
     2a4:	95 95       	asr	r25
     2a6:	87 95       	ror	r24
     2a8:	2a 95       	dec	r18
     2aa:	e2 f7       	brpl	.-8      	; 0x2a4 <DIO_ReadPin+0x1a>
}
     2ac:	81 70       	andi	r24, 0x01	; 1
     2ae:	08 95       	ret

000002b0 <DIO_WritePin>:
void DIO_WritePin(uint8_t PinNum,uint8_t PinValue)
{
	if(DIO_LEVEL_LOW == PinValue)
     2b0:	61 11       	cpse	r22, r1
     2b2:	16 c0       	rjmp	.+44     	; 0x2e0 <DIO_WritePin+0x30>
	{
		CLEAR_BIT(*(channel[PinNum].PortRegAddr), (channel[PinNum].PinIndex), uint8_t);
     2b4:	97 e0       	ldi	r25, 0x07	; 7
     2b6:	89 9f       	mul	r24, r25
     2b8:	f0 01       	movw	r30, r0
     2ba:	11 24       	eor	r1, r1
     2bc:	ea 51       	subi	r30, 0x1A	; 26
     2be:	ff 4f       	sbci	r31, 0xFF	; 255
     2c0:	36 81       	ldd	r19, Z+6	; 0x06
     2c2:	02 80       	ldd	r0, Z+2	; 0x02
     2c4:	f3 81       	ldd	r31, Z+3	; 0x03
     2c6:	e0 2d       	mov	r30, r0
     2c8:	20 81       	ld	r18, Z
     2ca:	81 e0       	ldi	r24, 0x01	; 1
     2cc:	90 e0       	ldi	r25, 0x00	; 0
     2ce:	02 c0       	rjmp	.+4      	; 0x2d4 <DIO_WritePin+0x24>
     2d0:	88 0f       	add	r24, r24
     2d2:	99 1f       	adc	r25, r25
     2d4:	3a 95       	dec	r19
     2d6:	e2 f7       	brpl	.-8      	; 0x2d0 <DIO_WritePin+0x20>
     2d8:	80 95       	com	r24
     2da:	82 23       	and	r24, r18
     2dc:	80 83       	st	Z, r24
     2de:	08 95       	ret
	}
	else if(DIO_LEVEL_HIGH == PinValue)
     2e0:	61 30       	cpi	r22, 0x01	; 1
     2e2:	a1 f4       	brne	.+40     	; 0x30c <DIO_WritePin+0x5c>
	{
		SET_BIT(*(channel[PinNum].PortRegAddr), (channel[PinNum].PinIndex), uint8_t);
     2e4:	97 e0       	ldi	r25, 0x07	; 7
     2e6:	89 9f       	mul	r24, r25
     2e8:	f0 01       	movw	r30, r0
     2ea:	11 24       	eor	r1, r1
     2ec:	ea 51       	subi	r30, 0x1A	; 26
     2ee:	ff 4f       	sbci	r31, 0xFF	; 255
     2f0:	36 81       	ldd	r19, Z+6	; 0x06
     2f2:	02 80       	ldd	r0, Z+2	; 0x02
     2f4:	f3 81       	ldd	r31, Z+3	; 0x03
     2f6:	e0 2d       	mov	r30, r0
     2f8:	20 81       	ld	r18, Z
     2fa:	81 e0       	ldi	r24, 0x01	; 1
     2fc:	90 e0       	ldi	r25, 0x00	; 0
     2fe:	02 c0       	rjmp	.+4      	; 0x304 <DIO_WritePin+0x54>
     300:	88 0f       	add	r24, r24
     302:	99 1f       	adc	r25, r25
     304:	3a 95       	dec	r19
     306:	e2 f7       	brpl	.-8      	; 0x300 <DIO_WritePin+0x50>
     308:	82 2b       	or	r24, r18
     30a:	80 83       	st	Z, r24
     30c:	08 95       	ret

0000030e <Info_vInit>:
 * remarks:             none
 * example:             none
 *......................................................................................*/
void Info_vInit(void)
{
	LCD_init();
     30e:	0e 94 66 03 	call	0x6cc	; 0x6cc <LCD_init>
	Keypad_vInit();
     312:	0e 94 3e 02 	call	0x47c	; 0x47c <Keypad_vInit>
     316:	08 95       	ret

00000318 <Info_vRun>:
extern void Info_vRun(void)
{
	static Info_enmState_t Run_l_enmState = INFO_STATE_QUESTION;
	static uint8_t Run_l_u8QuestionNumber = 0;
	static uint8_t Run_l_u8Score = 0;
	switch(Run_l_enmState)
     318:	80 91 c8 01 	lds	r24, 0x01C8	; 0x8001c8 <Run_l_enmState.1721>
     31c:	81 30       	cpi	r24, 0x01	; 1
     31e:	09 f4       	brne	.+2      	; 0x322 <Info_vRun+0xa>
     320:	50 c0       	rjmp	.+160    	; 0x3c2 <Info_vRun+0xaa>
     322:	38 f0       	brcs	.+14     	; 0x332 <Info_vRun+0x1a>
     324:	82 30       	cpi	r24, 0x02	; 2
     326:	09 f4       	brne	.+2      	; 0x32a <Info_vRun+0x12>
     328:	6f c0       	rjmp	.+222    	; 0x408 <__LOCK_REGION_LENGTH__+0x8>
     32a:	83 30       	cpi	r24, 0x03	; 3
     32c:	09 f4       	brne	.+2      	; 0x330 <Info_vRun+0x18>
     32e:	89 c0       	rjmp	.+274    	; 0x442 <__LOCK_REGION_LENGTH__+0x42>
     330:	08 95       	ret
	{
	case INFO_STATE_QUESTION:
		/* output */
		LCD_clear();
     332:	0e 94 72 04 	call	0x8e4	; 0x8e4 <LCD_clear>
		LCD_gotoRowColumn(0,0);
     336:	60 e0       	ldi	r22, 0x00	; 0
     338:	80 e0       	ldi	r24, 0x00	; 0
     33a:	0e 94 49 04 	call	0x892	; 0x892 <LCD_gotoRowColumn>
		LCD_displayString(Info_g_u8Questions_arr[Run_l_u8QuestionNumber]);
     33e:	80 91 c7 01 	lds	r24, 0x01C7	; 0x8001c7 <Run_l_u8QuestionNumber.1722>
     342:	24 e1       	ldi	r18, 0x14	; 20
     344:	82 9f       	mul	r24, r18
     346:	c0 01       	movw	r24, r0
     348:	11 24       	eor	r1, r1
     34a:	86 58       	subi	r24, 0x86	; 134
     34c:	9f 4f       	sbci	r25, 0xFF	; 255
     34e:	0e 94 5c 04 	call	0x8b8	; 0x8b8 <LCD_displayString>
		/* next state */
		if((Keypad_enmKeyState(KEYPAD_KEY_YES) == BUTTON_STATE_PRESSED) && (Keypad_enmKeyState(KEYPAD_KEY_NO) == BUTTON_STATE_PRESSED))
     352:	86 e0       	ldi	r24, 0x06	; 6
     354:	0e 94 e6 02 	call	0x5cc	; 0x5cc <Keypad_enmKeyState>
     358:	81 30       	cpi	r24, 0x01	; 1
     35a:	49 f4       	brne	.+18     	; 0x36e <Info_vRun+0x56>
     35c:	88 e0       	ldi	r24, 0x08	; 8
     35e:	0e 94 e6 02 	call	0x5cc	; 0x5cc <Keypad_enmKeyState>
     362:	81 30       	cpi	r24, 0x01	; 1
     364:	21 f4       	brne	.+8      	; 0x36e <Info_vRun+0x56>
		{
			Run_l_enmState = INFO_STATE_SCORE;
     366:	83 e0       	ldi	r24, 0x03	; 3
     368:	80 93 c8 01 	sts	0x01C8, r24	; 0x8001c8 <Run_l_enmState.1721>
     36c:	08 95       	ret
		}
		else if(Keypad_enmKeyState(KEYPAD_KEY_YES) == BUTTON_STATE_PRESSED)
     36e:	86 e0       	ldi	r24, 0x06	; 6
     370:	0e 94 e6 02 	call	0x5cc	; 0x5cc <Keypad_enmKeyState>
     374:	81 30       	cpi	r24, 0x01	; 1
     376:	81 f4       	brne	.+32     	; 0x398 <Info_vRun+0x80>
		{
			if(Info_g_enmAnswers_arr[Run_l_u8QuestionNumber] == INFO_ANSWER_YES)
     378:	e0 91 c7 01 	lds	r30, 0x01C7	; 0x8001c7 <Run_l_u8QuestionNumber.1722>
     37c:	f0 e0       	ldi	r31, 0x00	; 0
     37e:	eb 58       	subi	r30, 0x8B	; 139
     380:	ff 4f       	sbci	r31, 0xFF	; 255
     382:	80 81       	ld	r24, Z
     384:	82 30       	cpi	r24, 0x02	; 2
     386:	21 f4       	brne	.+8      	; 0x390 <Info_vRun+0x78>
			{
				Run_l_enmState = INFO_STATE_CORRECT_ANSWER;
     388:	81 e0       	ldi	r24, 0x01	; 1
     38a:	80 93 c8 01 	sts	0x01C8, r24	; 0x8001c8 <Run_l_enmState.1721>
     38e:	08 95       	ret
			}
			else
			{
				Run_l_enmState = INFO_STATE_WRONG_ANSWER;
     390:	82 e0       	ldi	r24, 0x02	; 2
     392:	80 93 c8 01 	sts	0x01C8, r24	; 0x8001c8 <Run_l_enmState.1721>
     396:	08 95       	ret
			}
		}
		else if(Keypad_enmKeyState(KEYPAD_KEY_NO) == BUTTON_STATE_PRESSED)
     398:	88 e0       	ldi	r24, 0x08	; 8
     39a:	0e 94 e6 02 	call	0x5cc	; 0x5cc <Keypad_enmKeyState>
     39e:	81 30       	cpi	r24, 0x01	; 1
     3a0:	09 f0       	breq	.+2      	; 0x3a4 <Info_vRun+0x8c>
     3a2:	6b c0       	rjmp	.+214    	; 0x47a <__LOCK_REGION_LENGTH__+0x7a>
		{
			if(Info_g_enmAnswers_arr[Run_l_u8QuestionNumber] == INFO_ANSWER_NO)
     3a4:	e0 91 c7 01 	lds	r30, 0x01C7	; 0x8001c7 <Run_l_u8QuestionNumber.1722>
     3a8:	f0 e0       	ldi	r31, 0x00	; 0
     3aa:	eb 58       	subi	r30, 0x8B	; 139
     3ac:	ff 4f       	sbci	r31, 0xFF	; 255
     3ae:	80 81       	ld	r24, Z
     3b0:	81 30       	cpi	r24, 0x01	; 1
     3b2:	19 f4       	brne	.+6      	; 0x3ba <Info_vRun+0xa2>
			{
				Run_l_enmState = INFO_STATE_CORRECT_ANSWER;
     3b4:	80 93 c8 01 	sts	0x01C8, r24	; 0x8001c8 <Run_l_enmState.1721>
     3b8:	08 95       	ret
			}
			else
			{
				Run_l_enmState = INFO_STATE_WRONG_ANSWER;
     3ba:	82 e0       	ldi	r24, 0x02	; 2
     3bc:	80 93 c8 01 	sts	0x01C8, r24	; 0x8001c8 <Run_l_enmState.1721>
     3c0:	08 95       	ret
			}
		}
		break;
	case INFO_STATE_CORRECT_ANSWER:
		/* output */
		LCD_clear();
     3c2:	0e 94 72 04 	call	0x8e4	; 0x8e4 <LCD_clear>
		LCD_gotoRowColumn(0,0);
     3c6:	60 e0       	ldi	r22, 0x00	; 0
     3c8:	80 e0       	ldi	r24, 0x00	; 0
     3ca:	0e 94 49 04 	call	0x892	; 0x892 <LCD_gotoRowColumn>
		LCD_displayString("  :)");
     3ce:	80 e6       	ldi	r24, 0x60	; 96
     3d0:	90 e0       	ldi	r25, 0x00	; 0
     3d2:	0e 94 5c 04 	call	0x8b8	; 0x8b8 <LCD_displayString>
		/* next state */
		if(Keypad_enmKeyState(KEYPAD_KEY_NEXT) == BUTTON_STATE_PRESSED)
     3d6:	84 e0       	ldi	r24, 0x04	; 4
     3d8:	0e 94 e6 02 	call	0x5cc	; 0x5cc <Keypad_enmKeyState>
     3dc:	81 30       	cpi	r24, 0x01	; 1
     3de:	09 f0       	breq	.+2      	; 0x3e2 <Info_vRun+0xca>
     3e0:	4c c0       	rjmp	.+152    	; 0x47a <__LOCK_REGION_LENGTH__+0x7a>
		{
			Run_l_u8QuestionNumber++;
     3e2:	80 91 c7 01 	lds	r24, 0x01C7	; 0x8001c7 <Run_l_u8QuestionNumber.1722>
     3e6:	8f 5f       	subi	r24, 0xFF	; 255
     3e8:	80 93 c7 01 	sts	0x01C7, r24	; 0x8001c7 <Run_l_u8QuestionNumber.1722>
			if(Run_l_u8QuestionNumber >= INFO_NUMBER_OF_QUESTIONS)
     3ec:	85 30       	cpi	r24, 0x05	; 5
     3ee:	48 f0       	brcs	.+18     	; 0x402 <__LOCK_REGION_LENGTH__+0x2>
			{
				Run_l_enmState = INFO_STATE_SCORE;
     3f0:	83 e0       	ldi	r24, 0x03	; 3
     3f2:	80 93 c8 01 	sts	0x01C8, r24	; 0x8001c8 <Run_l_enmState.1721>
				Run_l_u8Score++;
     3f6:	80 91 c6 01 	lds	r24, 0x01C6	; 0x8001c6 <Run_l_u8Score.1723>
     3fa:	8f 5f       	subi	r24, 0xFF	; 255
     3fc:	80 93 c6 01 	sts	0x01C6, r24	; 0x8001c6 <Run_l_u8Score.1723>
     400:	08 95       	ret
			}
			else
			{
				Run_l_enmState = INFO_STATE_QUESTION;
     402:	10 92 c8 01 	sts	0x01C8, r1	; 0x8001c8 <Run_l_enmState.1721>
     406:	08 95       	ret
			}
		}
		break;
	case INFO_STATE_WRONG_ANSWER:
		/* output */
		LCD_clear();
     408:	0e 94 72 04 	call	0x8e4	; 0x8e4 <LCD_clear>
		LCD_gotoRowColumn(0,0);
     40c:	60 e0       	ldi	r22, 0x00	; 0
     40e:	80 e0       	ldi	r24, 0x00	; 0
     410:	0e 94 49 04 	call	0x892	; 0x892 <LCD_gotoRowColumn>
		LCD_displayString("  :(");
     414:	85 e6       	ldi	r24, 0x65	; 101
     416:	90 e0       	ldi	r25, 0x00	; 0
     418:	0e 94 5c 04 	call	0x8b8	; 0x8b8 <LCD_displayString>
		/* next state */
		if(Keypad_enmKeyState(KEYPAD_KEY_NEXT) == BUTTON_STATE_PRESSED)
     41c:	84 e0       	ldi	r24, 0x04	; 4
     41e:	0e 94 e6 02 	call	0x5cc	; 0x5cc <Keypad_enmKeyState>
     422:	81 30       	cpi	r24, 0x01	; 1
     424:	51 f5       	brne	.+84     	; 0x47a <__LOCK_REGION_LENGTH__+0x7a>
		{
			Run_l_u8QuestionNumber++;
     426:	80 91 c7 01 	lds	r24, 0x01C7	; 0x8001c7 <Run_l_u8QuestionNumber.1722>
     42a:	8f 5f       	subi	r24, 0xFF	; 255
     42c:	80 93 c7 01 	sts	0x01C7, r24	; 0x8001c7 <Run_l_u8QuestionNumber.1722>
			if(Run_l_u8QuestionNumber >= INFO_NUMBER_OF_QUESTIONS)
     430:	85 30       	cpi	r24, 0x05	; 5
     432:	20 f0       	brcs	.+8      	; 0x43c <__LOCK_REGION_LENGTH__+0x3c>
			{
				Run_l_enmState = INFO_STATE_SCORE;
     434:	83 e0       	ldi	r24, 0x03	; 3
     436:	80 93 c8 01 	sts	0x01C8, r24	; 0x8001c8 <Run_l_enmState.1721>
     43a:	08 95       	ret
			}
			else
			{
				Run_l_enmState = INFO_STATE_QUESTION;
     43c:	10 92 c8 01 	sts	0x01C8, r1	; 0x8001c8 <Run_l_enmState.1721>
     440:	08 95       	ret
			}
		}
		break;
	case INFO_STATE_SCORE:
		/* output */
		LCD_clear();
     442:	0e 94 72 04 	call	0x8e4	; 0x8e4 <LCD_clear>
		LCD_gotoRowColumn(0,0);
     446:	60 e0       	ldi	r22, 0x00	; 0
     448:	80 e0       	ldi	r24, 0x00	; 0
     44a:	0e 94 49 04 	call	0x892	; 0x892 <LCD_gotoRowColumn>
		LCD_displayString("  score = ");
     44e:	8a e6       	ldi	r24, 0x6A	; 106
     450:	90 e0       	ldi	r25, 0x00	; 0
     452:	0e 94 5c 04 	call	0x8b8	; 0x8b8 <LCD_displayString>
		LCD_Write_Integer_Number(Run_l_u8Score);
     456:	60 91 c6 01 	lds	r22, 0x01C6	; 0x8001c6 <Run_l_u8Score.1723>
     45a:	70 e0       	ldi	r23, 0x00	; 0
     45c:	80 e0       	ldi	r24, 0x00	; 0
     45e:	90 e0       	ldi	r25, 0x00	; 0
     460:	0e 94 05 05 	call	0xa0a	; 0xa0a <LCD_Write_Integer_Number>
		/* next state */
		if(Keypad_enmKeyState(KEYPAD_KEY_RESTART) == BUTTON_STATE_PRESSED)
     464:	81 e0       	ldi	r24, 0x01	; 1
     466:	0e 94 e6 02 	call	0x5cc	; 0x5cc <Keypad_enmKeyState>
     46a:	81 30       	cpi	r24, 0x01	; 1
     46c:	31 f4       	brne	.+12     	; 0x47a <__LOCK_REGION_LENGTH__+0x7a>
		{
			Run_l_enmState = INFO_STATE_QUESTION;
     46e:	10 92 c8 01 	sts	0x01C8, r1	; 0x8001c8 <Run_l_enmState.1721>
			Run_l_u8QuestionNumber = 0;
     472:	10 92 c7 01 	sts	0x01C7, r1	; 0x8001c7 <Run_l_u8QuestionNumber.1722>
			Run_l_u8Score = 0;
     476:	10 92 c6 01 	sts	0x01C6, r1	; 0x8001c6 <Run_l_u8Score.1723>
     47a:	08 95       	ret

0000047c <Keypad_vInit>:
 * return:              none
 * remarks:             none
 * example:             none
 *......................................................................................*/
void Keypad_vInit(void)
{
     47c:	0f 93       	push	r16
     47e:	1f 93       	push	r17
     480:	cf 93       	push	r28
     482:	df 93       	push	r29
	uint8_t Init_l_u8Counter;
	
	DIO_Init();
     484:	0e 94 5c 00 	call	0xb8	; 0xb8 <DIO_Init>
     488:	c1 ee       	ldi	r28, 0xE1	; 225
     48a:	d0 e0       	ldi	r29, 0x00	; 0
     48c:	04 ee       	ldi	r16, 0xE4	; 228
     48e:	10 e0       	ldi	r17, 0x00	; 0
	for(Init_l_u8Counter = 0; Init_l_u8Counter < KEYPAD_NUMBER_OF_ROWS; Init_l_u8Counter++)
	{
		DIO_SetPinDirection(Keypad_u8RowPins[Init_l_u8Counter], DIO_DIR_OUT);
     490:	61 e0       	ldi	r22, 0x01	; 1
     492:	89 91       	ld	r24, Y+
     494:	0e 94 16 01 	call	0x22c	; 0x22c <DIO_SetPinDirection>
void Keypad_vInit(void)
{
	uint8_t Init_l_u8Counter;
	
	DIO_Init();
	for(Init_l_u8Counter = 0; Init_l_u8Counter < KEYPAD_NUMBER_OF_ROWS; Init_l_u8Counter++)
     498:	c0 17       	cp	r28, r16
     49a:	d1 07       	cpc	r29, r17
     49c:	c9 f7       	brne	.-14     	; 0x490 <Keypad_vInit+0x14>
     49e:	ce ed       	ldi	r28, 0xDE	; 222
     4a0:	d0 e0       	ldi	r29, 0x00	; 0
     4a2:	01 ee       	ldi	r16, 0xE1	; 225
     4a4:	10 e0       	ldi	r17, 0x00	; 0
	{
		DIO_SetPinDirection(Keypad_u8RowPins[Init_l_u8Counter], DIO_DIR_OUT);
	}
	for(Init_l_u8Counter = 0; Init_l_u8Counter < KEYPAD_NUMBER_OF_COLUMNS; Init_l_u8Counter++)
	{
		DIO_SetPinDirection(Keypad_u8ColumnPins[Init_l_u8Counter], DIO_DIR_IN);
     4a6:	60 e0       	ldi	r22, 0x00	; 0
     4a8:	89 91       	ld	r24, Y+
     4aa:	0e 94 16 01 	call	0x22c	; 0x22c <DIO_SetPinDirection>
	DIO_Init();
	for(Init_l_u8Counter = 0; Init_l_u8Counter < KEYPAD_NUMBER_OF_ROWS; Init_l_u8Counter++)
	{
		DIO_SetPinDirection(Keypad_u8RowPins[Init_l_u8Counter], DIO_DIR_OUT);
	}
	for(Init_l_u8Counter = 0; Init_l_u8Counter < KEYPAD_NUMBER_OF_COLUMNS; Init_l_u8Counter++)
     4ae:	0c 17       	cp	r16, r28
     4b0:	1d 07       	cpc	r17, r29
     4b2:	c9 f7       	brne	.-14     	; 0x4a6 <Keypad_vInit+0x2a>
     4b4:	e2 ed       	ldi	r30, 0xD2	; 210
     4b6:	f1 e0       	ldi	r31, 0x01	; 1
     4b8:	a9 ec       	ldi	r26, 0xC9	; 201
     4ba:	b1 e0       	ldi	r27, 0x01	; 1
     4bc:	8b ed       	ldi	r24, 0xDB	; 219
     4be:	91 e0       	ldi	r25, 0x01	; 1
	{
		DIO_SetPinDirection(Keypad_u8ColumnPins[Init_l_u8Counter], DIO_DIR_IN);
	}
	for(Init_l_u8Counter = 0; Init_l_u8Counter < KEYPAD_NUMBER_OF_KEYS; Init_l_u8Counter++)
	{
		Keypad_g_enmButtonState[Init_l_u8Counter] = BUTTON_STATE_RELEASED;
     4c0:	11 92       	st	Z+, r1
		Keypad_g_u8ButtonSample[Init_l_u8Counter] = 0u;
     4c2:	1d 92       	st	X+, r1
	}
	for(Init_l_u8Counter = 0; Init_l_u8Counter < KEYPAD_NUMBER_OF_COLUMNS; Init_l_u8Counter++)
	{
		DIO_SetPinDirection(Keypad_u8ColumnPins[Init_l_u8Counter], DIO_DIR_IN);
	}
	for(Init_l_u8Counter = 0; Init_l_u8Counter < KEYPAD_NUMBER_OF_KEYS; Init_l_u8Counter++)
     4c4:	e8 17       	cp	r30, r24
     4c6:	f9 07       	cpc	r31, r25
     4c8:	d9 f7       	brne	.-10     	; 0x4c0 <Keypad_vInit+0x44>
	{
		Keypad_g_enmButtonState[Init_l_u8Counter] = BUTTON_STATE_RELEASED;
		Keypad_g_u8ButtonSample[Init_l_u8Counter] = 0u;
	}
}
     4ca:	df 91       	pop	r29
     4cc:	cf 91       	pop	r28
     4ce:	1f 91       	pop	r17
     4d0:	0f 91       	pop	r16
     4d2:	08 95       	ret

000004d4 <Keypad_vCheckKeyState>:
 * return:              none
 * remarks:             none
 * example:             none
 *......................................................................................*/
void Keypad_vCheckKeyState(void)
{
     4d4:	af 92       	push	r10
     4d6:	bf 92       	push	r11
     4d8:	cf 92       	push	r12
     4da:	df 92       	push	r13
     4dc:	ef 92       	push	r14
     4de:	ff 92       	push	r15
     4e0:	0f 93       	push	r16
     4e2:	1f 93       	push	r17
     4e4:	cf 93       	push	r28
     4e6:	df 93       	push	r29
     4e8:	0f 2e       	mov	r0, r31
     4ea:	f1 ee       	ldi	r31, 0xE1	; 225
     4ec:	cf 2e       	mov	r12, r31
     4ee:	f0 e0       	ldi	r31, 0x00	; 0
     4f0:	df 2e       	mov	r13, r31
     4f2:	f0 2d       	mov	r31, r0
     4f4:	c0 e0       	ldi	r28, 0x00	; 0
	uint8_t CheckKeyState_l_u8Column;
	uint8_t CheckKeyState_l_u8Key;
	
	for(CheckKeyState_l_u8Row = 0; CheckKeyState_l_u8Row < KEYPAD_NUMBER_OF_ROWS; CheckKeyState_l_u8Row++)
	{
		DIO_WritePin(Keypad_u8RowPins[CheckKeyState_l_u8Row], DIO_LEVEL_HIGH);
     4f6:	aa 24       	eor	r10, r10
     4f8:	a3 94       	inc	r10
     4fa:	f6 01       	movw	r30, r12
     4fc:	b1 90       	ld	r11, Z+
     4fe:	6f 01       	movw	r12, r30
     500:	6a 2d       	mov	r22, r10
     502:	8b 2d       	mov	r24, r11
     504:	0e 94 58 01 	call	0x2b0	; 0x2b0 <DIO_WritePin>
     508:	0f 2e       	mov	r0, r31
     50a:	fe ed       	ldi	r31, 0xDE	; 222
     50c:	ef 2e       	mov	r14, r31
     50e:	f0 e0       	ldi	r31, 0x00	; 0
     510:	ff 2e       	mov	r15, r31
     512:	f0 2d       	mov	r31, r0
     514:	d3 e0       	ldi	r29, 0x03	; 3
     516:	dc 0f       	add	r29, r28
		for(CheckKeyState_l_u8Column = 0; CheckKeyState_l_u8Column < KEYPAD_NUMBER_OF_COLUMNS; CheckKeyState_l_u8Column++)
		{
			CheckKeyState_l_u8Key = (CheckKeyState_l_u8Row * KEYPAD_NUMBER_OF_COLUMNS) + CheckKeyState_l_u8Column;
			switch(Keypad_g_enmButtonState[CheckKeyState_l_u8Key])
     518:	0c 2f       	mov	r16, r28
     51a:	10 e0       	ldi	r17, 0x00	; 0
     51c:	f8 01       	movw	r30, r16
     51e:	ee 52       	subi	r30, 0x2E	; 46
     520:	fe 4f       	sbci	r31, 0xFE	; 254
     522:	80 81       	ld	r24, Z
     524:	88 23       	and	r24, r24
     526:	f1 f0       	breq	.+60     	; 0x564 <Keypad_vCheckKeyState+0x90>
     528:	81 30       	cpi	r24, 0x01	; 1
     52a:	b9 f5       	brne	.+110    	; 0x59a <Keypad_vCheckKeyState+0xc6>
			{
			case BUTTON_STATE_PRESSED:
				/* output */
				if(DIO_ReadPin(Keypad_u8ColumnPins[CheckKeyState_l_u8Column]) == DIO_LEVEL_HIGH)
     52c:	f7 01       	movw	r30, r14
     52e:	80 81       	ld	r24, Z
     530:	0e 94 45 01 	call	0x28a	; 0x28a <DIO_ReadPin>
     534:	81 30       	cpi	r24, 0x01	; 1
     536:	29 f4       	brne	.+10     	; 0x542 <Keypad_vCheckKeyState+0x6e>
				{
					Keypad_g_u8ButtonSample[CheckKeyState_l_u8Key] = 0u;
     538:	f8 01       	movw	r30, r16
     53a:	e7 53       	subi	r30, 0x37	; 55
     53c:	fe 4f       	sbci	r31, 0xFE	; 254
     53e:	10 82       	st	Z, r1
     540:	2c c0       	rjmp	.+88     	; 0x59a <Keypad_vCheckKeyState+0xc6>
				}
				else
				{
					Keypad_g_u8ButtonSample[CheckKeyState_l_u8Key]++;
     542:	f8 01       	movw	r30, r16
     544:	e7 53       	subi	r30, 0x37	; 55
     546:	fe 4f       	sbci	r31, 0xFE	; 254
     548:	80 81       	ld	r24, Z
     54a:	8f 5f       	subi	r24, 0xFF	; 255
     54c:	80 83       	st	Z, r24
				}
				/* next state */
				if(Keypad_g_u8ButtonSample[CheckKeyState_l_u8Key] >= KEYPAD_NUMBER_OF_SAMPLES)
     54e:	8f 30       	cpi	r24, 0x0F	; 15
     550:	20 f1       	brcs	.+72     	; 0x59a <Keypad_vCheckKeyState+0xc6>
				{
					Keypad_g_enmButtonState[CheckKeyState_l_u8Key] = BUTTON_STATE_RELEASED;
     552:	f8 01       	movw	r30, r16
     554:	ee 52       	subi	r30, 0x2E	; 46
     556:	fe 4f       	sbci	r31, 0xFE	; 254
     558:	10 82       	st	Z, r1
					Keypad_g_u8ButtonSample[CheckKeyState_l_u8Key] = 0;
     55a:	f8 01       	movw	r30, r16
     55c:	e7 53       	subi	r30, 0x37	; 55
     55e:	fe 4f       	sbci	r31, 0xFE	; 254
     560:	10 82       	st	Z, r1
     562:	1b c0       	rjmp	.+54     	; 0x59a <Keypad_vCheckKeyState+0xc6>
				}
				break;
			case BUTTON_STATE_RELEASED:
				/* output */
				if(DIO_ReadPin(Keypad_u8ColumnPins[CheckKeyState_l_u8Column]) == DIO_LEVEL_LOW)
     564:	f7 01       	movw	r30, r14
     566:	80 81       	ld	r24, Z
     568:	0e 94 45 01 	call	0x28a	; 0x28a <DIO_ReadPin>
     56c:	81 11       	cpse	r24, r1
     56e:	05 c0       	rjmp	.+10     	; 0x57a <Keypad_vCheckKeyState+0xa6>
				{
					Keypad_g_u8ButtonSample[CheckKeyState_l_u8Key] = 0u;
     570:	f8 01       	movw	r30, r16
     572:	e7 53       	subi	r30, 0x37	; 55
     574:	fe 4f       	sbci	r31, 0xFE	; 254
     576:	10 82       	st	Z, r1
     578:	10 c0       	rjmp	.+32     	; 0x59a <Keypad_vCheckKeyState+0xc6>
				}
				else
				{
					Keypad_g_u8ButtonSample[CheckKeyState_l_u8Key]++;
     57a:	f8 01       	movw	r30, r16
     57c:	e7 53       	subi	r30, 0x37	; 55
     57e:	fe 4f       	sbci	r31, 0xFE	; 254
     580:	80 81       	ld	r24, Z
     582:	8f 5f       	subi	r24, 0xFF	; 255
     584:	80 83       	st	Z, r24
				}
				/* next state */
				if(Keypad_g_u8ButtonSample[CheckKeyState_l_u8Key] >= KEYPAD_NUMBER_OF_SAMPLES)
     586:	8f 30       	cpi	r24, 0x0F	; 15
     588:	40 f0       	brcs	.+16     	; 0x59a <Keypad_vCheckKeyState+0xc6>
				{
					Keypad_g_enmButtonState[CheckKeyState_l_u8Key] = BUTTON_STATE_PRESSED;
     58a:	f8 01       	movw	r30, r16
     58c:	ee 52       	subi	r30, 0x2E	; 46
     58e:	fe 4f       	sbci	r31, 0xFE	; 254
     590:	a0 82       	st	Z, r10
					Keypad_g_u8ButtonSample[CheckKeyState_l_u8Key] = 0;
     592:	f8 01       	movw	r30, r16
     594:	e7 53       	subi	r30, 0x37	; 55
     596:	fe 4f       	sbci	r31, 0xFE	; 254
     598:	10 82       	st	Z, r1
     59a:	cf 5f       	subi	r28, 0xFF	; 255
     59c:	ff ef       	ldi	r31, 0xFF	; 255
     59e:	ef 1a       	sub	r14, r31
     5a0:	ff 0a       	sbc	r15, r31
	uint8_t CheckKeyState_l_u8Key;
	
	for(CheckKeyState_l_u8Row = 0; CheckKeyState_l_u8Row < KEYPAD_NUMBER_OF_ROWS; CheckKeyState_l_u8Row++)
	{
		DIO_WritePin(Keypad_u8RowPins[CheckKeyState_l_u8Row], DIO_LEVEL_HIGH);
		for(CheckKeyState_l_u8Column = 0; CheckKeyState_l_u8Column < KEYPAD_NUMBER_OF_COLUMNS; CheckKeyState_l_u8Column++)
     5a2:	cd 13       	cpse	r28, r29
     5a4:	b9 cf       	rjmp	.-142    	; 0x518 <Keypad_vCheckKeyState+0x44>
			default :
				/* do nothing */
				break;
			}
		}
		DIO_WritePin(Keypad_u8RowPins[CheckKeyState_l_u8Row], DIO_LEVEL_LOW);
     5a6:	60 e0       	ldi	r22, 0x00	; 0
     5a8:	8b 2d       	mov	r24, r11
     5aa:	0e 94 58 01 	call	0x2b0	; 0x2b0 <DIO_WritePin>
     5ae:	cd 2f       	mov	r28, r29
{
	uint8_t CheckKeyState_l_u8Row;
	uint8_t CheckKeyState_l_u8Column;
	uint8_t CheckKeyState_l_u8Key;
	
	for(CheckKeyState_l_u8Row = 0; CheckKeyState_l_u8Row < KEYPAD_NUMBER_OF_ROWS; CheckKeyState_l_u8Row++)
     5b0:	d9 30       	cpi	r29, 0x09	; 9
     5b2:	09 f0       	breq	.+2      	; 0x5b6 <Keypad_vCheckKeyState+0xe2>
     5b4:	a2 cf       	rjmp	.-188    	; 0x4fa <Keypad_vCheckKeyState+0x26>
				break;
			}
		}
		DIO_WritePin(Keypad_u8RowPins[CheckKeyState_l_u8Row], DIO_LEVEL_LOW);
	}
}
     5b6:	df 91       	pop	r29
     5b8:	cf 91       	pop	r28
     5ba:	1f 91       	pop	r17
     5bc:	0f 91       	pop	r16
     5be:	ff 90       	pop	r15
     5c0:	ef 90       	pop	r14
     5c2:	df 90       	pop	r13
     5c4:	cf 90       	pop	r12
     5c6:	bf 90       	pop	r11
     5c8:	af 90       	pop	r10
     5ca:	08 95       	ret

000005cc <Keypad_enmKeyState>:
 * example:             none
 *......................................................................................*/
Keypad_enmButtonState_t Keypad_enmKeyState(Keypad_enmKeyName a_enmKeyName)
{
	Keypad_enmButtonState_t KeyIsPressed_l_ReturnValue;
	if(Keypad_g_enmButtonState[a_enmKeyName] == BUTTON_STATE_PRESSED)
     5cc:	e8 2f       	mov	r30, r24
     5ce:	f0 e0       	ldi	r31, 0x00	; 0
     5d0:	ee 52       	subi	r30, 0x2E	; 46
     5d2:	fe 4f       	sbci	r31, 0xFE	; 254
	}
	else
	{
		KeyIsPressed_l_ReturnValue = BUTTON_STATE_RELEASED;
	}
	return KeyIsPressed_l_ReturnValue;
     5d4:	81 e0       	ldi	r24, 0x01	; 1
     5d6:	90 81       	ld	r25, Z
     5d8:	91 30       	cpi	r25, 0x01	; 1
     5da:	09 f0       	breq	.+2      	; 0x5de <Keypad_enmKeyState+0x12>
     5dc:	80 e0       	ldi	r24, 0x00	; 0
}
     5de:	08 95       	ret

000005e0 <LCD_sendCommand>:
 * Return:			
 *******************************************************************************/
void LCD_displayStringRowColumn(uint8_t string[],uint8_t row, uint8_t column){
	LCD_gotoRowColumn(row,column);
	LCD_displayString(string);
}
     5e0:	ef 92       	push	r14
     5e2:	ff 92       	push	r15
     5e4:	0f 93       	push	r16
     5e6:	1f 93       	push	r17
     5e8:	cf 93       	push	r28
     5ea:	c8 2f       	mov	r28, r24
     5ec:	60 e0       	ldi	r22, 0x00	; 0
     5ee:	81 e0       	ldi	r24, 0x01	; 1
     5f0:	0e 94 58 01 	call	0x2b0	; 0x2b0 <DIO_WritePin>
     5f4:	60 e0       	ldi	r22, 0x00	; 0
     5f6:	82 e0       	ldi	r24, 0x02	; 2
     5f8:	0e 94 58 01 	call	0x2b0	; 0x2b0 <DIO_WritePin>
     5fc:	61 e0       	ldi	r22, 0x01	; 1
     5fe:	83 e0       	ldi	r24, 0x03	; 3
     600:	0e 94 58 01 	call	0x2b0	; 0x2b0 <DIO_WritePin>
     604:	0f 2e       	mov	r0, r31
     606:	f5 e0       	ldi	r31, 0x05	; 5
     608:	ef 2e       	mov	r14, r31
     60a:	f0 2d       	mov	r31, r0
     60c:	f1 2c       	mov	r15, r1
     60e:	00 e0       	ldi	r16, 0x00	; 0
     610:	10 e0       	ldi	r17, 0x00	; 0
     612:	20 e0       	ldi	r18, 0x00	; 0
     614:	30 e0       	ldi	r19, 0x00	; 0
     616:	40 e0       	ldi	r20, 0x00	; 0
     618:	50 e0       	ldi	r21, 0x00	; 0
     61a:	60 e0       	ldi	r22, 0x00	; 0
     61c:	81 e0       	ldi	r24, 0x01	; 1
     61e:	0e 94 70 06 	call	0xce0	; 0xce0 <Timer_enmDelayBlocking>
     622:	8b b3       	in	r24, 0x1b	; 27
     624:	8f 70       	andi	r24, 0x0F	; 15
     626:	9c 2f       	mov	r25, r28
     628:	90 7f       	andi	r25, 0xF0	; 240
     62a:	89 2b       	or	r24, r25
     62c:	8b bb       	out	0x1b, r24	; 27
     62e:	20 e0       	ldi	r18, 0x00	; 0
     630:	30 e0       	ldi	r19, 0x00	; 0
     632:	40 e0       	ldi	r20, 0x00	; 0
     634:	50 e0       	ldi	r21, 0x00	; 0
     636:	60 e0       	ldi	r22, 0x00	; 0
     638:	81 e0       	ldi	r24, 0x01	; 1
     63a:	0e 94 70 06 	call	0xce0	; 0xce0 <Timer_enmDelayBlocking>
     63e:	60 e0       	ldi	r22, 0x00	; 0
     640:	83 e0       	ldi	r24, 0x03	; 3
     642:	0e 94 58 01 	call	0x2b0	; 0x2b0 <DIO_WritePin>
     646:	20 e0       	ldi	r18, 0x00	; 0
     648:	30 e0       	ldi	r19, 0x00	; 0
     64a:	40 e0       	ldi	r20, 0x00	; 0
     64c:	50 e0       	ldi	r21, 0x00	; 0
     64e:	60 e0       	ldi	r22, 0x00	; 0
     650:	81 e0       	ldi	r24, 0x01	; 1
     652:	0e 94 70 06 	call	0xce0	; 0xce0 <Timer_enmDelayBlocking>
     656:	61 e0       	ldi	r22, 0x01	; 1
     658:	83 e0       	ldi	r24, 0x03	; 3
     65a:	0e 94 58 01 	call	0x2b0	; 0x2b0 <DIO_WritePin>
     65e:	20 e0       	ldi	r18, 0x00	; 0
     660:	30 e0       	ldi	r19, 0x00	; 0
     662:	40 e0       	ldi	r20, 0x00	; 0
     664:	50 e0       	ldi	r21, 0x00	; 0
     666:	60 e0       	ldi	r22, 0x00	; 0
     668:	81 e0       	ldi	r24, 0x01	; 1
     66a:	0e 94 70 06 	call	0xce0	; 0xce0 <Timer_enmDelayBlocking>
     66e:	8b b3       	in	r24, 0x1b	; 27
     670:	28 2f       	mov	r18, r24
     672:	2f 70       	andi	r18, 0x0F	; 15
     674:	30 e1       	ldi	r19, 0x10	; 16
     676:	c3 9f       	mul	r28, r19
     678:	c0 01       	movw	r24, r0
     67a:	11 24       	eor	r1, r1
     67c:	82 2b       	or	r24, r18
     67e:	8b bb       	out	0x1b, r24	; 27
     680:	20 e0       	ldi	r18, 0x00	; 0
     682:	30 e0       	ldi	r19, 0x00	; 0
     684:	40 e0       	ldi	r20, 0x00	; 0
     686:	50 e0       	ldi	r21, 0x00	; 0
     688:	60 e0       	ldi	r22, 0x00	; 0
     68a:	81 e0       	ldi	r24, 0x01	; 1
     68c:	0e 94 70 06 	call	0xce0	; 0xce0 <Timer_enmDelayBlocking>
     690:	60 e0       	ldi	r22, 0x00	; 0
     692:	83 e0       	ldi	r24, 0x03	; 3
     694:	0e 94 58 01 	call	0x2b0	; 0x2b0 <DIO_WritePin>
     698:	20 e0       	ldi	r18, 0x00	; 0
     69a:	30 e0       	ldi	r19, 0x00	; 0
     69c:	40 e0       	ldi	r20, 0x00	; 0
     69e:	50 e0       	ldi	r21, 0x00	; 0
     6a0:	60 e0       	ldi	r22, 0x00	; 0
     6a2:	81 e0       	ldi	r24, 0x01	; 1
     6a4:	0e 94 70 06 	call	0xce0	; 0xce0 <Timer_enmDelayBlocking>
     6a8:	61 e0       	ldi	r22, 0x01	; 1
     6aa:	83 e0       	ldi	r24, 0x03	; 3
     6ac:	0e 94 58 01 	call	0x2b0	; 0x2b0 <DIO_WritePin>
     6b0:	20 e0       	ldi	r18, 0x00	; 0
     6b2:	30 e0       	ldi	r19, 0x00	; 0
     6b4:	40 e0       	ldi	r20, 0x00	; 0
     6b6:	50 e0       	ldi	r21, 0x00	; 0
     6b8:	60 e0       	ldi	r22, 0x00	; 0
     6ba:	81 e0       	ldi	r24, 0x01	; 1
     6bc:	0e 94 70 06 	call	0xce0	; 0xce0 <Timer_enmDelayBlocking>
     6c0:	cf 91       	pop	r28
     6c2:	1f 91       	pop	r17
     6c4:	0f 91       	pop	r16
     6c6:	ff 90       	pop	r15
     6c8:	ef 90       	pop	r14
     6ca:	08 95       	ret

000006cc <LCD_init>:
     6cc:	ef 92       	push	r14
     6ce:	ff 92       	push	r15
     6d0:	0f 93       	push	r16
     6d2:	1f 93       	push	r17
     6d4:	0e 94 d1 05 	call	0xba2	; 0xba2 <Timer_enmInit>
     6d8:	8f ef       	ldi	r24, 0xFF	; 255
     6da:	8a bb       	out	0x1a, r24	; 26
     6dc:	0f 2e       	mov	r0, r31
     6de:	f5 e0       	ldi	r31, 0x05	; 5
     6e0:	ef 2e       	mov	r14, r31
     6e2:	f0 2d       	mov	r31, r0
     6e4:	f1 2c       	mov	r15, r1
     6e6:	00 e0       	ldi	r16, 0x00	; 0
     6e8:	10 e0       	ldi	r17, 0x00	; 0
     6ea:	20 e0       	ldi	r18, 0x00	; 0
     6ec:	30 e0       	ldi	r19, 0x00	; 0
     6ee:	40 e0       	ldi	r20, 0x00	; 0
     6f0:	50 e0       	ldi	r21, 0x00	; 0
     6f2:	60 e0       	ldi	r22, 0x00	; 0
     6f4:	81 e0       	ldi	r24, 0x01	; 1
     6f6:	0e 94 70 06 	call	0xce0	; 0xce0 <Timer_enmDelayBlocking>
     6fa:	83 e3       	ldi	r24, 0x33	; 51
     6fc:	0e 94 f0 02 	call	0x5e0	; 0x5e0 <LCD_sendCommand>
     700:	20 e0       	ldi	r18, 0x00	; 0
     702:	30 e0       	ldi	r19, 0x00	; 0
     704:	40 e0       	ldi	r20, 0x00	; 0
     706:	50 e0       	ldi	r21, 0x00	; 0
     708:	60 e0       	ldi	r22, 0x00	; 0
     70a:	81 e0       	ldi	r24, 0x01	; 1
     70c:	0e 94 70 06 	call	0xce0	; 0xce0 <Timer_enmDelayBlocking>
     710:	82 e3       	ldi	r24, 0x32	; 50
     712:	0e 94 f0 02 	call	0x5e0	; 0x5e0 <LCD_sendCommand>
     716:	20 e0       	ldi	r18, 0x00	; 0
     718:	30 e0       	ldi	r19, 0x00	; 0
     71a:	40 e0       	ldi	r20, 0x00	; 0
     71c:	50 e0       	ldi	r21, 0x00	; 0
     71e:	60 e0       	ldi	r22, 0x00	; 0
     720:	81 e0       	ldi	r24, 0x01	; 1
     722:	0e 94 70 06 	call	0xce0	; 0xce0 <Timer_enmDelayBlocking>
     726:	88 e2       	ldi	r24, 0x28	; 40
     728:	0e 94 f0 02 	call	0x5e0	; 0x5e0 <LCD_sendCommand>
     72c:	20 e0       	ldi	r18, 0x00	; 0
     72e:	30 e0       	ldi	r19, 0x00	; 0
     730:	40 e0       	ldi	r20, 0x00	; 0
     732:	50 e0       	ldi	r21, 0x00	; 0
     734:	60 e0       	ldi	r22, 0x00	; 0
     736:	81 e0       	ldi	r24, 0x01	; 1
     738:	0e 94 70 06 	call	0xce0	; 0xce0 <Timer_enmDelayBlocking>
     73c:	82 e0       	ldi	r24, 0x02	; 2
     73e:	0e 94 f0 02 	call	0x5e0	; 0x5e0 <LCD_sendCommand>
     742:	20 e0       	ldi	r18, 0x00	; 0
     744:	30 e0       	ldi	r19, 0x00	; 0
     746:	40 e0       	ldi	r20, 0x00	; 0
     748:	50 e0       	ldi	r21, 0x00	; 0
     74a:	60 e0       	ldi	r22, 0x00	; 0
     74c:	81 e0       	ldi	r24, 0x01	; 1
     74e:	0e 94 70 06 	call	0xce0	; 0xce0 <Timer_enmDelayBlocking>
     752:	8c e0       	ldi	r24, 0x0C	; 12
     754:	0e 94 f0 02 	call	0x5e0	; 0x5e0 <LCD_sendCommand>
     758:	20 e0       	ldi	r18, 0x00	; 0
     75a:	30 e0       	ldi	r19, 0x00	; 0
     75c:	40 e0       	ldi	r20, 0x00	; 0
     75e:	50 e0       	ldi	r21, 0x00	; 0
     760:	60 e0       	ldi	r22, 0x00	; 0
     762:	81 e0       	ldi	r24, 0x01	; 1
     764:	0e 94 70 06 	call	0xce0	; 0xce0 <Timer_enmDelayBlocking>
     768:	86 e0       	ldi	r24, 0x06	; 6
     76a:	0e 94 f0 02 	call	0x5e0	; 0x5e0 <LCD_sendCommand>
     76e:	20 e0       	ldi	r18, 0x00	; 0
     770:	30 e0       	ldi	r19, 0x00	; 0
     772:	40 e0       	ldi	r20, 0x00	; 0
     774:	50 e0       	ldi	r21, 0x00	; 0
     776:	60 e0       	ldi	r22, 0x00	; 0
     778:	81 e0       	ldi	r24, 0x01	; 1
     77a:	0e 94 70 06 	call	0xce0	; 0xce0 <Timer_enmDelayBlocking>
     77e:	81 e0       	ldi	r24, 0x01	; 1
     780:	0e 94 f0 02 	call	0x5e0	; 0x5e0 <LCD_sendCommand>
     784:	0f 2e       	mov	r0, r31
     786:	f8 ec       	ldi	r31, 0xC8	; 200
     788:	ef 2e       	mov	r14, r31
     78a:	f0 2d       	mov	r31, r0
     78c:	20 e0       	ldi	r18, 0x00	; 0
     78e:	30 e0       	ldi	r19, 0x00	; 0
     790:	40 e0       	ldi	r20, 0x00	; 0
     792:	50 e0       	ldi	r21, 0x00	; 0
     794:	60 e0       	ldi	r22, 0x00	; 0
     796:	81 e0       	ldi	r24, 0x01	; 1
     798:	0e 94 70 06 	call	0xce0	; 0xce0 <Timer_enmDelayBlocking>
     79c:	1f 91       	pop	r17
     79e:	0f 91       	pop	r16
     7a0:	ff 90       	pop	r15
     7a2:	ef 90       	pop	r14
     7a4:	08 95       	ret

000007a6 <LCD_displayChar>:
     7a6:	ef 92       	push	r14
     7a8:	ff 92       	push	r15
     7aa:	0f 93       	push	r16
     7ac:	1f 93       	push	r17
     7ae:	cf 93       	push	r28
     7b0:	c8 2f       	mov	r28, r24
     7b2:	61 e0       	ldi	r22, 0x01	; 1
     7b4:	81 e0       	ldi	r24, 0x01	; 1
     7b6:	0e 94 58 01 	call	0x2b0	; 0x2b0 <DIO_WritePin>
     7ba:	60 e0       	ldi	r22, 0x00	; 0
     7bc:	82 e0       	ldi	r24, 0x02	; 2
     7be:	0e 94 58 01 	call	0x2b0	; 0x2b0 <DIO_WritePin>
     7c2:	61 e0       	ldi	r22, 0x01	; 1
     7c4:	83 e0       	ldi	r24, 0x03	; 3
     7c6:	0e 94 58 01 	call	0x2b0	; 0x2b0 <DIO_WritePin>
     7ca:	0f 2e       	mov	r0, r31
     7cc:	f5 e0       	ldi	r31, 0x05	; 5
     7ce:	ef 2e       	mov	r14, r31
     7d0:	f0 2d       	mov	r31, r0
     7d2:	f1 2c       	mov	r15, r1
     7d4:	00 e0       	ldi	r16, 0x00	; 0
     7d6:	10 e0       	ldi	r17, 0x00	; 0
     7d8:	20 e0       	ldi	r18, 0x00	; 0
     7da:	30 e0       	ldi	r19, 0x00	; 0
     7dc:	40 e0       	ldi	r20, 0x00	; 0
     7de:	50 e0       	ldi	r21, 0x00	; 0
     7e0:	60 e0       	ldi	r22, 0x00	; 0
     7e2:	81 e0       	ldi	r24, 0x01	; 1
     7e4:	0e 94 70 06 	call	0xce0	; 0xce0 <Timer_enmDelayBlocking>
     7e8:	8b b3       	in	r24, 0x1b	; 27
     7ea:	8f 70       	andi	r24, 0x0F	; 15
     7ec:	9c 2f       	mov	r25, r28
     7ee:	90 7f       	andi	r25, 0xF0	; 240
     7f0:	89 2b       	or	r24, r25
     7f2:	8b bb       	out	0x1b, r24	; 27
     7f4:	20 e0       	ldi	r18, 0x00	; 0
     7f6:	30 e0       	ldi	r19, 0x00	; 0
     7f8:	40 e0       	ldi	r20, 0x00	; 0
     7fa:	50 e0       	ldi	r21, 0x00	; 0
     7fc:	60 e0       	ldi	r22, 0x00	; 0
     7fe:	81 e0       	ldi	r24, 0x01	; 1
     800:	0e 94 70 06 	call	0xce0	; 0xce0 <Timer_enmDelayBlocking>
     804:	60 e0       	ldi	r22, 0x00	; 0
     806:	83 e0       	ldi	r24, 0x03	; 3
     808:	0e 94 58 01 	call	0x2b0	; 0x2b0 <DIO_WritePin>
     80c:	20 e0       	ldi	r18, 0x00	; 0
     80e:	30 e0       	ldi	r19, 0x00	; 0
     810:	40 e0       	ldi	r20, 0x00	; 0
     812:	50 e0       	ldi	r21, 0x00	; 0
     814:	60 e0       	ldi	r22, 0x00	; 0
     816:	81 e0       	ldi	r24, 0x01	; 1
     818:	0e 94 70 06 	call	0xce0	; 0xce0 <Timer_enmDelayBlocking>
     81c:	61 e0       	ldi	r22, 0x01	; 1
     81e:	83 e0       	ldi	r24, 0x03	; 3
     820:	0e 94 58 01 	call	0x2b0	; 0x2b0 <DIO_WritePin>
     824:	20 e0       	ldi	r18, 0x00	; 0
     826:	30 e0       	ldi	r19, 0x00	; 0
     828:	40 e0       	ldi	r20, 0x00	; 0
     82a:	50 e0       	ldi	r21, 0x00	; 0
     82c:	60 e0       	ldi	r22, 0x00	; 0
     82e:	81 e0       	ldi	r24, 0x01	; 1
     830:	0e 94 70 06 	call	0xce0	; 0xce0 <Timer_enmDelayBlocking>
     834:	8b b3       	in	r24, 0x1b	; 27
     836:	28 2f       	mov	r18, r24
     838:	2f 70       	andi	r18, 0x0F	; 15
     83a:	30 e1       	ldi	r19, 0x10	; 16
     83c:	c3 9f       	mul	r28, r19
     83e:	c0 01       	movw	r24, r0
     840:	11 24       	eor	r1, r1
     842:	82 2b       	or	r24, r18
     844:	8b bb       	out	0x1b, r24	; 27
     846:	20 e0       	ldi	r18, 0x00	; 0
     848:	30 e0       	ldi	r19, 0x00	; 0
     84a:	40 e0       	ldi	r20, 0x00	; 0
     84c:	50 e0       	ldi	r21, 0x00	; 0
     84e:	60 e0       	ldi	r22, 0x00	; 0
     850:	81 e0       	ldi	r24, 0x01	; 1
     852:	0e 94 70 06 	call	0xce0	; 0xce0 <Timer_enmDelayBlocking>
     856:	60 e0       	ldi	r22, 0x00	; 0
     858:	83 e0       	ldi	r24, 0x03	; 3
     85a:	0e 94 58 01 	call	0x2b0	; 0x2b0 <DIO_WritePin>
     85e:	20 e0       	ldi	r18, 0x00	; 0
     860:	30 e0       	ldi	r19, 0x00	; 0
     862:	40 e0       	ldi	r20, 0x00	; 0
     864:	50 e0       	ldi	r21, 0x00	; 0
     866:	60 e0       	ldi	r22, 0x00	; 0
     868:	81 e0       	ldi	r24, 0x01	; 1
     86a:	0e 94 70 06 	call	0xce0	; 0xce0 <Timer_enmDelayBlocking>
     86e:	61 e0       	ldi	r22, 0x01	; 1
     870:	83 e0       	ldi	r24, 0x03	; 3
     872:	0e 94 58 01 	call	0x2b0	; 0x2b0 <DIO_WritePin>
     876:	20 e0       	ldi	r18, 0x00	; 0
     878:	30 e0       	ldi	r19, 0x00	; 0
     87a:	40 e0       	ldi	r20, 0x00	; 0
     87c:	50 e0       	ldi	r21, 0x00	; 0
     87e:	60 e0       	ldi	r22, 0x00	; 0
     880:	81 e0       	ldi	r24, 0x01	; 1
     882:	0e 94 70 06 	call	0xce0	; 0xce0 <Timer_enmDelayBlocking>
     886:	cf 91       	pop	r28
     888:	1f 91       	pop	r17
     88a:	0f 91       	pop	r16
     88c:	ff 90       	pop	r15
     88e:	ef 90       	pop	r14
     890:	08 95       	ret

00000892 <LCD_gotoRowColumn>:
     892:	9f ef       	ldi	r25, 0xFF	; 255
     894:	96 0f       	add	r25, r22
     896:	90 31       	cpi	r25, 0x10	; 16
     898:	70 f4       	brcc	.+28     	; 0x8b6 <LCD_gotoRowColumn+0x24>
     89a:	81 30       	cpi	r24, 0x01	; 1
     89c:	19 f0       	breq	.+6      	; 0x8a4 <LCD_gotoRowColumn+0x12>
     89e:	82 30       	cpi	r24, 0x02	; 2
     8a0:	31 f0       	breq	.+12     	; 0x8ae <LCD_gotoRowColumn+0x1c>
     8a2:	08 95       	ret
     8a4:	8f e7       	ldi	r24, 0x7F	; 127
     8a6:	86 0f       	add	r24, r22
     8a8:	0e 94 f0 02 	call	0x5e0	; 0x5e0 <LCD_sendCommand>
     8ac:	08 95       	ret
     8ae:	8f eb       	ldi	r24, 0xBF	; 191
     8b0:	86 0f       	add	r24, r22
     8b2:	0e 94 f0 02 	call	0x5e0	; 0x5e0 <LCD_sendCommand>
     8b6:	08 95       	ret

000008b8 <LCD_displayString>:
     8b8:	0f 93       	push	r16
     8ba:	1f 93       	push	r17
     8bc:	cf 93       	push	r28
     8be:	fc 01       	movw	r30, r24
     8c0:	80 81       	ld	r24, Z
     8c2:	88 23       	and	r24, r24
     8c4:	59 f0       	breq	.+22     	; 0x8dc <LCD_displayString+0x24>
     8c6:	8f 01       	movw	r16, r30
     8c8:	c0 e0       	ldi	r28, 0x00	; 0
     8ca:	0e 94 d3 03 	call	0x7a6	; 0x7a6 <LCD_displayChar>
     8ce:	cf 5f       	subi	r28, 0xFF	; 255
     8d0:	f8 01       	movw	r30, r16
     8d2:	ec 0f       	add	r30, r28
     8d4:	f1 1d       	adc	r31, r1
     8d6:	80 81       	ld	r24, Z
     8d8:	81 11       	cpse	r24, r1
     8da:	f7 cf       	rjmp	.-18     	; 0x8ca <LCD_displayString+0x12>
     8dc:	cf 91       	pop	r28
     8de:	1f 91       	pop	r17
     8e0:	0f 91       	pop	r16
     8e2:	08 95       	ret

000008e4 <LCD_clear>:
 * Outputs:			
 *
 * Return:			
 *******************************************************************************/
void LCD_clear(void){
	LCD_sendCommand(Clear_display);
     8e4:	81 e0       	ldi	r24, 0x01	; 1
     8e6:	0e 94 f0 02 	call	0x5e0	; 0x5e0 <LCD_sendCommand>
     8ea:	08 95       	ret

000008ec <reverse>:



// a function to reverse a string
void reverse (uint8_t *str, uint8_t length)
{
     8ec:	9c 01       	movw	r18, r24
	uint8_t start = 0;
	uint8_t end = length-1;
     8ee:	61 50       	subi	r22, 0x01	; 1
	while( start < end )
     8f0:	79 f0       	breq	.+30     	; 0x910 <reverse+0x24>
     8f2:	90 e0       	ldi	r25, 0x00	; 0
	{
		uint8_t temp = str[start] ;
     8f4:	d9 01       	movw	r26, r18
     8f6:	a9 0f       	add	r26, r25
     8f8:	b1 1d       	adc	r27, r1
     8fa:	8c 91       	ld	r24, X

		str[start] = str[end];
     8fc:	f9 01       	movw	r30, r18
     8fe:	e6 0f       	add	r30, r22
     900:	f1 1d       	adc	r31, r1
     902:	40 81       	ld	r20, Z
     904:	4c 93       	st	X, r20

		str[end] = temp;
     906:	80 83       	st	Z, r24

		start++;
     908:	9f 5f       	subi	r25, 0xFF	; 255
		end--;
     90a:	61 50       	subi	r22, 0x01	; 1
// a function to reverse a string
void reverse (uint8_t *str, uint8_t length)
{
	uint8_t start = 0;
	uint8_t end = length-1;
	while( start < end )
     90c:	96 17       	cp	r25, r22
     90e:	90 f3       	brcs	.-28     	; 0x8f4 <reverse+0x8>
     910:	08 95       	ret

00000912 <integer_to_string>:
		end--;
	}

}

uint8_t* integer_to_string (sint32_t number,uint8_t* str,uint8_t base){
     912:	7f 92       	push	r7
     914:	8f 92       	push	r8
     916:	9f 92       	push	r9
     918:	af 92       	push	r10
     91a:	bf 92       	push	r11
     91c:	cf 92       	push	r12
     91e:	df 92       	push	r13
     920:	ef 92       	push	r14
     922:	ff 92       	push	r15
     924:	0f 93       	push	r16
     926:	1f 93       	push	r17
     928:	cf 93       	push	r28
     92a:	df 93       	push	r29
     92c:	6b 01       	movw	r12, r22
     92e:	7c 01       	movw	r14, r24
     930:	8a 01       	movw	r16, r20
	uint8_t i = 0;
	uint8_t isNegative = 0;

	// Handle 0 explicitely

	if (number == 0)
     932:	61 15       	cp	r22, r1
     934:	71 05       	cpc	r23, r1
     936:	81 05       	cpc	r24, r1
     938:	91 05       	cpc	r25, r1
     93a:	29 f4       	brne	.+10     	; 0x946 <integer_to_string+0x34>
	{
		str[i++] = '0';
     93c:	80 e3       	ldi	r24, 0x30	; 48
     93e:	fa 01       	movw	r30, r20
     940:	80 83       	st	Z, r24
		str[i] = '\0';  // the end of the string
     942:	11 82       	std	Z+1, r1	; 0x01
		return str;
     944:	53 c0       	rjmp	.+166    	; 0x9ec <integer_to_string+0xda>
	}

	// negative numbers are handled only with
	// base 10. Otherwise numbers are considered unsigned

	if (number <0 && base ==10)
     946:	99 23       	and	r25, r25
     948:	94 f4       	brge	.+36     	; 0x96e <integer_to_string+0x5c>
     94a:	2a 30       	cpi	r18, 0x0A	; 10
     94c:	91 f4       	brne	.+36     	; 0x972 <integer_to_string+0x60>
	{
		isNegative = 1;
		number = -number; // to get the absolute value of the number
     94e:	f0 94       	com	r15
     950:	e0 94       	com	r14
     952:	d0 94       	com	r13
     954:	c0 94       	com	r12
     956:	c1 1c       	adc	r12, r1
     958:	d1 1c       	adc	r13, r1
     95a:	e1 1c       	adc	r14, r1
     95c:	f1 1c       	adc	r15, r1
	}

	while (number != 0)
     95e:	c1 14       	cp	r12, r1
     960:	d1 04       	cpc	r13, r1
     962:	e1 04       	cpc	r14, r1
     964:	f1 04       	cpc	r15, r1
     966:	99 f1       	breq	.+102    	; 0x9ce <integer_to_string+0xbc>
	// negative numbers are handled only with
	// base 10. Otherwise numbers are considered unsigned

	if (number <0 && base ==10)
	{
		isNegative = 1;
     968:	77 24       	eor	r7, r7
     96a:	73 94       	inc	r7
     96c:	03 c0       	rjmp	.+6      	; 0x974 <integer_to_string+0x62>
     96e:	71 2c       	mov	r7, r1
     970:	01 c0       	rjmp	.+2      	; 0x974 <integer_to_string+0x62>
     972:	71 2c       	mov	r7, r1
     974:	c1 e0       	ldi	r28, 0x01	; 1
	}

	while (number != 0)
	{

		uint8_t remainder = number % base ;
     976:	82 2e       	mov	r8, r18
     978:	91 2c       	mov	r9, r1
     97a:	a1 2c       	mov	r10, r1
     97c:	b1 2c       	mov	r11, r1
     97e:	01 c0       	rjmp	.+2      	; 0x982 <integer_to_string+0x70>
     980:	c8 2f       	mov	r28, r24
     982:	df ef       	ldi	r29, 0xFF	; 255
     984:	dc 0f       	add	r29, r28
     986:	c7 01       	movw	r24, r14
     988:	b6 01       	movw	r22, r12
     98a:	a5 01       	movw	r20, r10
     98c:	94 01       	movw	r18, r8
     98e:	0e 94 d9 07 	call	0xfb2	; 0xfb2 <__divmodsi4>
		if (remainder > 9)
     992:	6a 30       	cpi	r22, 0x0A	; 10
     994:	30 f0       	brcs	.+12     	; 0x9a2 <integer_to_string+0x90>
		{
			str[i++] = (remainder-10) + 'A';  // for hexa-decimal only
     996:	f8 01       	movw	r30, r16
     998:	ed 0f       	add	r30, r29
     99a:	f1 1d       	adc	r31, r1
     99c:	69 5c       	subi	r22, 0xC9	; 201
     99e:	60 83       	st	Z, r22
     9a0:	05 c0       	rjmp	.+10     	; 0x9ac <integer_to_string+0x9a>

		}
		else
		{
			str[i++] = remainder + '0';
     9a2:	f8 01       	movw	r30, r16
     9a4:	ed 0f       	add	r30, r29
     9a6:	f1 1d       	adc	r31, r1
     9a8:	60 5d       	subi	r22, 0xD0	; 208
     9aa:	60 83       	st	Z, r22
		}
		number=number/base;
     9ac:	c7 01       	movw	r24, r14
     9ae:	b6 01       	movw	r22, r12
     9b0:	a5 01       	movw	r20, r10
     9b2:	94 01       	movw	r18, r8
     9b4:	0e 94 d9 07 	call	0xfb2	; 0xfb2 <__divmodsi4>
     9b8:	69 01       	movw	r12, r18
     9ba:	7a 01       	movw	r14, r20
     9bc:	81 e0       	ldi	r24, 0x01	; 1
     9be:	8c 0f       	add	r24, r28
	{
		isNegative = 1;
		number = -number; // to get the absolute value of the number
	}

	while (number != 0)
     9c0:	23 2b       	or	r18, r19
     9c2:	24 2b       	or	r18, r20
     9c4:	25 2b       	or	r18, r21
     9c6:	e1 f6       	brne	.-72     	; 0x980 <integer_to_string+0x6e>
			str[i++] = remainder + '0';
		}
		number=number/base;
	}

	if (isNegative)
     9c8:	77 20       	and	r7, r7
     9ca:	41 f0       	breq	.+16     	; 0x9dc <integer_to_string+0xca>
     9cc:	01 c0       	rjmp	.+2      	; 0x9d0 <integer_to_string+0xbe>
	{
		isNegative = 1;
		number = -number; // to get the absolute value of the number
	}

	while (number != 0)
     9ce:	c0 e0       	ldi	r28, 0x00	; 0
		number=number/base;
	}

	if (isNegative)
	{
		str[i++] = '-';
     9d0:	f8 01       	movw	r30, r16
     9d2:	ec 0f       	add	r30, r28
     9d4:	f1 1d       	adc	r31, r1
     9d6:	8d e2       	ldi	r24, 0x2D	; 45
     9d8:	80 83       	st	Z, r24
     9da:	cf 5f       	subi	r28, 0xFF	; 255
	}

	str[i] = '\0';  // the end of the string
     9dc:	f8 01       	movw	r30, r16
     9de:	ec 0f       	add	r30, r28
     9e0:	f1 1d       	adc	r31, r1
     9e2:	10 82       	st	Z, r1

	reverse(str,i); // where i  index for the length of the string
     9e4:	6c 2f       	mov	r22, r28
     9e6:	c8 01       	movw	r24, r16
     9e8:	0e 94 76 04 	call	0x8ec	; 0x8ec <reverse>

	return str;
}
     9ec:	c8 01       	movw	r24, r16
     9ee:	df 91       	pop	r29
     9f0:	cf 91       	pop	r28
     9f2:	1f 91       	pop	r17
     9f4:	0f 91       	pop	r16
     9f6:	ff 90       	pop	r15
     9f8:	ef 90       	pop	r14
     9fa:	df 90       	pop	r13
     9fc:	cf 90       	pop	r12
     9fe:	bf 90       	pop	r11
     a00:	af 90       	pop	r10
     a02:	9f 90       	pop	r9
     a04:	8f 90       	pop	r8
     a06:	7f 90       	pop	r7
     a08:	08 95       	ret

00000a0a <LCD_Write_Integer_Number>:

void LCD_Write_Integer_Number (sint32_t number )
{
     a0a:	cf 93       	push	r28
     a0c:	df 93       	push	r29
     a0e:	cd b7       	in	r28, 0x3d	; 61
     a10:	de b7       	in	r29, 0x3e	; 62
     a12:	60 97       	sbiw	r28, 0x10	; 16
     a14:	0f b6       	in	r0, 0x3f	; 63
     a16:	f8 94       	cli
     a18:	de bf       	out	0x3e, r29	; 62
     a1a:	0f be       	out	0x3f, r0	; 63
     a1c:	cd bf       	out	0x3d, r28	; 61
	uint8_t str[16];
	integer_to_string(number,str,10) ;
     a1e:	2a e0       	ldi	r18, 0x0A	; 10
     a20:	ae 01       	movw	r20, r28
     a22:	4f 5f       	subi	r20, 0xFF	; 255
     a24:	5f 4f       	sbci	r21, 0xFF	; 255
     a26:	0e 94 89 04 	call	0x912	; 0x912 <integer_to_string>

	LCD_displayString((uint8_t*)str);
     a2a:	ce 01       	movw	r24, r28
     a2c:	01 96       	adiw	r24, 0x01	; 1
     a2e:	0e 94 5c 04 	call	0x8b8	; 0x8b8 <LCD_displayString>

     a32:	60 96       	adiw	r28, 0x10	; 16
     a34:	0f b6       	in	r0, 0x3f	; 63
     a36:	f8 94       	cli
     a38:	de bf       	out	0x3e, r29	; 62
     a3a:	0f be       	out	0x3f, r0	; 63
     a3c:	cd bf       	out	0x3d, r28	; 61
     a3e:	df 91       	pop	r29
     a40:	cf 91       	pop	r28
     a42:	08 95       	ret

00000a44 <main>:
#include "Infotainment.h"
#include "LCD.h"

int main(void)
{
	DIO_Init();
     a44:	0e 94 5c 00 	call	0xb8	; 0xb8 <DIO_Init>
	Info_vInit();
     a48:	0e 94 87 01 	call	0x30e	; 0x30e <Info_vInit>
	SOS_enmInit();
     a4c:	0e 94 64 05 	call	0xac8	; 0xac8 <SOS_enmInit>
	
	SOS_enmCreateTask(SOS_TASK0, 2, Keypad_vCheckKeyState);
     a50:	4a e6       	ldi	r20, 0x6A	; 106
     a52:	52 e0       	ldi	r21, 0x02	; 2
     a54:	62 e0       	ldi	r22, 0x02	; 2
     a56:	70 e0       	ldi	r23, 0x00	; 0
     a58:	80 e0       	ldi	r24, 0x00	; 0
     a5a:	0e 94 71 05 	call	0xae2	; 0xae2 <SOS_enmCreateTask>
	SOS_enmCreateTask(SOS_TASK1, 50, Info_vRun);
     a5e:	4c e8       	ldi	r20, 0x8C	; 140
     a60:	51 e0       	ldi	r21, 0x01	; 1
     a62:	62 e3       	ldi	r22, 0x32	; 50
     a64:	70 e0       	ldi	r23, 0x00	; 0
     a66:	81 e0       	ldi	r24, 0x01	; 1
     a68:	0e 94 71 05 	call	0xae2	; 0xae2 <SOS_enmCreateTask>
	
	SOS_enmRun();
     a6c:	0e 94 a2 05 	call	0xb44	; 0xb44 <SOS_enmRun>
}
     a70:	80 e0       	ldi	r24, 0x00	; 0
     a72:	90 e0       	ldi	r25, 0x00	; 0
     a74:	08 95       	ret

00000a76 <SOS_vLongTerm>:
	{
		SOS_g_strTasks_arr[a_enmName].m_enmState = SOS_TASK_STATE_DELETE;
		SOS_g_strTasks_arr[a_enmName].m_vCallBackFunction_ptr = NULL_POINTER;
	}
	return DeleteTask_l_enmReturnValue;
}
     a76:	20 91 db 01 	lds	r18, 0x01DB	; 0x8001db <LongTerm_l_u16SystemCounter.1699>
     a7a:	30 91 dc 01 	lds	r19, 0x01DC	; 0x8001dc <LongTerm_l_u16SystemCounter.1699+0x1>
     a7e:	2f 5f       	subi	r18, 0xFF	; 255
     a80:	3f 4f       	sbci	r19, 0xFF	; 255
     a82:	30 93 dc 01 	sts	0x01DC, r19	; 0x8001dc <LongTerm_l_u16SystemCounter.1699+0x1>
     a86:	20 93 db 01 	sts	0x01DB, r18	; 0x8001db <LongTerm_l_u16SystemCounter.1699>
     a8a:	80 91 e1 01 	lds	r24, 0x01E1	; 0x8001e1 <SOS_g_strTasks_arr+0x4>
     a8e:	82 30       	cpi	r24, 0x02	; 2
     a90:	59 f4       	brne	.+22     	; 0xaa8 <SOS_vLongTerm+0x32>
     a92:	60 91 dd 01 	lds	r22, 0x01DD	; 0x8001dd <SOS_g_strTasks_arr>
     a96:	70 91 de 01 	lds	r23, 0x01DE	; 0x8001de <SOS_g_strTasks_arr+0x1>
     a9a:	c9 01       	movw	r24, r18
     a9c:	0e 94 c5 07 	call	0xf8a	; 0xf8a <__udivmodhi4>
     aa0:	89 2b       	or	r24, r25
     aa2:	11 f4       	brne	.+4      	; 0xaa8 <SOS_vLongTerm+0x32>
     aa4:	10 92 e1 01 	sts	0x01E1, r1	; 0x8001e1 <SOS_g_strTasks_arr+0x4>
     aa8:	80 91 e6 01 	lds	r24, 0x01E6	; 0x8001e6 <SOS_g_strTasks_arr+0x9>
     aac:	82 30       	cpi	r24, 0x02	; 2
     aae:	59 f4       	brne	.+22     	; 0xac6 <SOS_vLongTerm+0x50>
     ab0:	60 91 e2 01 	lds	r22, 0x01E2	; 0x8001e2 <SOS_g_strTasks_arr+0x5>
     ab4:	70 91 e3 01 	lds	r23, 0x01E3	; 0x8001e3 <SOS_g_strTasks_arr+0x6>
     ab8:	c9 01       	movw	r24, r18
     aba:	0e 94 c5 07 	call	0xf8a	; 0xf8a <__udivmodhi4>
     abe:	89 2b       	or	r24, r25
     ac0:	11 f4       	brne	.+4      	; 0xac6 <SOS_vLongTerm+0x50>
     ac2:	10 92 e6 01 	sts	0x01E6, r1	; 0x8001e6 <SOS_g_strTasks_arr+0x9>
     ac6:	08 95       	ret

00000ac8 <SOS_enmInit>:
     ac8:	ed ed       	ldi	r30, 0xDD	; 221
     aca:	f1 e0       	ldi	r31, 0x01	; 1
     acc:	83 e0       	ldi	r24, 0x03	; 3
     ace:	84 83       	std	Z+4, r24	; 0x04
     ad0:	13 82       	std	Z+3, r1	; 0x03
     ad2:	12 82       	std	Z+2, r1	; 0x02
     ad4:	81 87       	std	Z+9, r24	; 0x09
     ad6:	10 86       	std	Z+8, r1	; 0x08
     ad8:	17 82       	std	Z+7, r1	; 0x07
     ada:	0e 94 d1 05 	call	0xba2	; 0xba2 <Timer_enmInit>
     ade:	80 e0       	ldi	r24, 0x00	; 0
     ae0:	08 95       	ret

00000ae2 <SOS_enmCreateTask>:
     ae2:	cf 93       	push	r28
     ae4:	82 30       	cpi	r24, 0x02	; 2
     ae6:	b0 f4       	brcc	.+44     	; 0xb14 <SOS_enmCreateTask+0x32>
     ae8:	90 e0       	ldi	r25, 0x00	; 0
     aea:	fc 01       	movw	r30, r24
     aec:	ee 0f       	add	r30, r30
     aee:	ff 1f       	adc	r31, r31
     af0:	ee 0f       	add	r30, r30
     af2:	ff 1f       	adc	r31, r31
     af4:	e8 0f       	add	r30, r24
     af6:	f9 1f       	adc	r31, r25
     af8:	e3 52       	subi	r30, 0x23	; 35
     afa:	fe 4f       	sbci	r31, 0xFE	; 254
     afc:	22 81       	ldd	r18, Z+2	; 0x02
     afe:	33 81       	ldd	r19, Z+3	; 0x03
     b00:	23 2b       	or	r18, r19
     b02:	51 f4       	brne	.+20     	; 0xb18 <SOS_enmCreateTask+0x36>
     b04:	c1 e0       	ldi	r28, 0x01	; 1
     b06:	61 15       	cp	r22, r1
     b08:	71 05       	cpc	r23, r1
     b0a:	09 f0       	breq	.+2      	; 0xb0e <SOS_enmCreateTask+0x2c>
     b0c:	c0 e0       	ldi	r28, 0x00	; 0
     b0e:	cc 23       	and	r28, r28
     b10:	39 f0       	breq	.+14     	; 0xb20 <SOS_enmCreateTask+0x3e>
     b12:	03 c0       	rjmp	.+6      	; 0xb1a <SOS_enmCreateTask+0x38>
     b14:	c1 e0       	ldi	r28, 0x01	; 1
     b16:	01 c0       	rjmp	.+2      	; 0xb1a <SOS_enmCreateTask+0x38>
     b18:	c1 e0       	ldi	r28, 0x01	; 1
     b1a:	0e 94 57 00 	call	0xae	; 0xae <DET_vReportError>
     b1e:	0f c0       	rjmp	.+30     	; 0xb3e <SOS_enmCreateTask+0x5c>
     b20:	fc 01       	movw	r30, r24
     b22:	ee 0f       	add	r30, r30
     b24:	ff 1f       	adc	r31, r31
     b26:	ee 0f       	add	r30, r30
     b28:	ff 1f       	adc	r31, r31
     b2a:	8e 0f       	add	r24, r30
     b2c:	9f 1f       	adc	r25, r31
     b2e:	fc 01       	movw	r30, r24
     b30:	e3 52       	subi	r30, 0x23	; 35
     b32:	fe 4f       	sbci	r31, 0xFE	; 254
     b34:	71 83       	std	Z+1, r23	; 0x01
     b36:	60 83       	st	Z, r22
     b38:	53 83       	std	Z+3, r21	; 0x03
     b3a:	42 83       	std	Z+2, r20	; 0x02
     b3c:	14 82       	std	Z+4, r1	; 0x04
     b3e:	8c 2f       	mov	r24, r28
     b40:	cf 91       	pop	r28
     b42:	08 95       	ret

00000b44 <SOS_enmRun>:
	}
	else
#endif /* (SOS_ERROR_DETECT == 1) */
	/*........................................*/
	{
		SET_BIT(SREG_REG, I_BIT, uint8_t);
     b44:	8f b7       	in	r24, 0x3f	; 63
     b46:	80 68       	ori	r24, 0x80	; 128
     b48:	8f bf       	out	0x3f, r24	; 63
		Timer_enmStart(SOS_SYSTEM_TIMER, SOS_SYSTEM_TICK, &SOS_vLongTerm);
     b4a:	4b e3       	ldi	r20, 0x3B	; 59
     b4c:	55 e0       	ldi	r21, 0x05	; 5
     b4e:	61 e0       	ldi	r22, 0x01	; 1
     b50:	80 e0       	ldi	r24, 0x00	; 0
     b52:	0e 94 11 06 	call	0xc22	; 0xc22 <Timer_enmStart>
		for(;;)
		{
			Run_l_u8Counter = 0u;
			while(Run_l_u8Counter < SOS_NUMBER_OF_TASKS)
			{
				if(SOS_TASK_STATE_READY == SOS_g_strTasks_arr[Run_l_u8Counter].m_enmState)
     b56:	0d ed       	ldi	r16, 0xDD	; 221
     b58:	11 e0       	ldi	r17, 0x01	; 1
				{
					SOS_g_strTasks_arr[Run_l_u8Counter].m_vCallBackFunction_ptr();
					SOS_g_strTasks_arr[Run_l_u8Counter].m_enmState = SOS_TASK_STATE_WAIT;
     b5a:	68 94       	set
     b5c:	ff 24       	eor	r15, r15
     b5e:	f1 f8       	bld	r15, 1
		for(;;)
		{
			Run_l_u8Counter = 0u;
			while(Run_l_u8Counter < SOS_NUMBER_OF_TASKS)
			{
				if(SOS_TASK_STATE_READY == SOS_g_strTasks_arr[Run_l_u8Counter].m_enmState)
     b60:	d1 2c       	mov	r13, r1
     b62:	e1 2c       	mov	r14, r1
     b64:	bb 24       	eor	r11, r11
     b66:	b3 94       	inc	r11
     b68:	c1 2c       	mov	r12, r1
     b6a:	f8 01       	movw	r30, r16
     b6c:	84 81       	ldd	r24, Z+4	; 0x04
     b6e:	88 23       	and	r24, r24
     b70:	31 f0       	breq	.+12     	; 0xb7e <SOS_enmRun+0x3a>
     b72:	81 85       	ldd	r24, Z+9	; 0x09
     b74:	81 11       	cpse	r24, r1
     b76:	12 c0       	rjmp	.+36     	; 0xb9c <SOS_enmRun+0x58>
     b78:	cb 2d       	mov	r28, r11
     b7a:	dc 2d       	mov	r29, r12
     b7c:	02 c0       	rjmp	.+4      	; 0xb82 <SOS_enmRun+0x3e>
     b7e:	cd 2d       	mov	r28, r13
     b80:	de 2d       	mov	r29, r14
				{
					SOS_g_strTasks_arr[Run_l_u8Counter].m_vCallBackFunction_ptr();
     b82:	ce 01       	movw	r24, r28
     b84:	88 0f       	add	r24, r24
     b86:	99 1f       	adc	r25, r25
     b88:	88 0f       	add	r24, r24
     b8a:	99 1f       	adc	r25, r25
     b8c:	c8 0f       	add	r28, r24
     b8e:	d9 1f       	adc	r29, r25
     b90:	c3 52       	subi	r28, 0x23	; 35
     b92:	de 4f       	sbci	r29, 0xFE	; 254
     b94:	ea 81       	ldd	r30, Y+2	; 0x02
     b96:	fb 81       	ldd	r31, Y+3	; 0x03
     b98:	09 95       	icall
					SOS_g_strTasks_arr[Run_l_u8Counter].m_enmState = SOS_TASK_STATE_WAIT;
     b9a:	fc 82       	std	Y+4, r15	; 0x04
					Run_l_u8Counter = SOS_NUMBER_OF_TASKS;
				}
				Run_l_u8Counter++;
			}
			/* sleep */
			CPU_enmSleep();
     b9c:	0e 94 49 00 	call	0x92	; 0x92 <CPU_enmSleep>
		}
     ba0:	e4 cf       	rjmp	.-56     	; 0xb6a <SOS_enmRun+0x26>

00000ba2 <Timer_enmInit>:
 * return:              function state
 * remarks:             none
 * example:             none
 *......................................................................................*/
Timer_enmStatus_t Timer_enmInit(void)
{
     ba2:	cf 93       	push	r28
    /*........................................*/
#if(TIMER_ERROR_DETECT == 1)
    /* check for any error */
    for(Init_l_u8Counter = 0u; Init_l_u8Counter < TIMER_NUMBER_OF_TIMERS; Init_l_u8Counter++)
    {
        switch(Timer_enmConfiguration_arr[Init_l_u8Counter])
     ba4:	80 91 e4 00 	lds	r24, 0x00E4	; 0x8000e4 <Timer_enmConfiguration_arr>
     ba8:	83 30       	cpi	r24, 0x03	; 3
     baa:	98 f1       	brcs	.+102    	; 0xc12 <Timer_enmInit+0x70>
        case TIMER_NUMBER_0 :
        case TIMER_NUMBER_1 :
        case TIMER_NUMBER_2 :
            break;
        default:
            Init_l_enmReturnValue = TIMER_NOT_OK;
     bac:	c1 e0       	ldi	r28, 0x01	; 1
     bae:	01 c0       	rjmp	.+2      	; 0xbb2 <Timer_enmInit+0x10>
 *......................................................................................*/
Timer_enmStatus_t Timer_enmInit(void)
{
    uint8_t Init_l_u8Counter;

    Timer_enmStatus_t Init_l_enmReturnValue = TIMER_OK;
     bb0:	c0 e0       	ldi	r28, 0x00	; 0
            Init_l_enmReturnValue = TIMER_NOT_OK;
            break;
        }
    }
    /* report the error if any */
    if(Init_l_enmReturnValue != TIMER_OK)
     bb2:	cc 23       	and	r28, r28
     bb4:	29 f0       	breq	.+10     	; 0xbc0 <Timer_enmInit+0x1e>
     bb6:	01 c0       	rjmp	.+2      	; 0xbba <Timer_enmInit+0x18>
        case TIMER_NUMBER_0 :
        case TIMER_NUMBER_1 :
        case TIMER_NUMBER_2 :
            break;
        default:
            Init_l_enmReturnValue = TIMER_NOT_OK;
     bb8:	c1 e0       	ldi	r28, 0x01	; 1
        }
    }
    /* report the error if any */
    if(Init_l_enmReturnValue != TIMER_OK)
    {
        DET_vReportError();
     bba:	0e 94 57 00 	call	0xae	; 0xae <DET_vReportError>
     bbe:	2e c0       	rjmp	.+92     	; 0xc1c <Timer_enmInit+0x7a>
     bc0:	e4 ee       	ldi	r30, 0xE4	; 228
     bc2:	f0 e0       	ldi	r31, 0x00	; 0
     bc4:	26 ee       	ldi	r18, 0xE6	; 230
     bc6:	30 e0       	ldi	r19, 0x00	; 0
#endif /* (TIMER_ERROR_DETECT == 1) */
    /*........................................*/
    {
        for(Init_l_u8Counter = 0u; Init_l_u8Counter < TIMER_NUMBER_OF_TIMERS; Init_l_u8Counter++)
        {
            switch(Timer_enmConfiguration_arr[Init_l_u8Counter])
     bc8:	81 91       	ld	r24, Z+
     bca:	81 30       	cpi	r24, 0x01	; 1
     bcc:	59 f0       	breq	.+22     	; 0xbe4 <Timer_enmInit+0x42>
     bce:	18 f0       	brcs	.+6      	; 0xbd6 <Timer_enmInit+0x34>
     bd0:	82 30       	cpi	r24, 0x02	; 2
     bd2:	a9 f0       	breq	.+42     	; 0xbfe <Timer_enmInit+0x5c>
     bd4:	1a c0       	rjmp	.+52     	; 0xc0a <Timer_enmInit+0x68>
                 * 0. Normal Mode
                 * 1. PWM, Phase Correct
                 * 2. CTC Mode
                 * 3. Fast PWM
                 */
                CLEAR_BIT(TCCR0_REG, WGM00_BIT, uint8_t);
     bd6:	83 b7       	in	r24, 0x33	; 51
     bd8:	8f 7b       	andi	r24, 0xBF	; 191
     bda:	83 bf       	out	0x33, r24	; 51
                SET_BIT(TCCR0_REG, WGM01_BIT, uint8_t);
     bdc:	83 b7       	in	r24, 0x33	; 51
     bde:	88 60       	ori	r24, 0x08	; 8
     be0:	83 bf       	out	0x33, r24	; 51
                break;
     be2:	13 c0       	rjmp	.+38     	; 0xc0a <Timer_enmInit+0x68>
                 * 13. Reserved
                 * 14. Fast PWM                         => ICR1
                 * 15. Fast PWM                         => OCR1A
                 * input capture                        => working by default for PD6
                 */
                CLEAR_BIT(TCCR1A_REG, WGM10_BIT, uint8_t);
     be4:	8f b5       	in	r24, 0x2f	; 47
     be6:	8e 7f       	andi	r24, 0xFE	; 254
     be8:	8f bd       	out	0x2f, r24	; 47
                CLEAR_BIT(TCCR1A_REG, WGM11_BIT, uint8_t);
     bea:	8f b5       	in	r24, 0x2f	; 47
     bec:	8d 7f       	andi	r24, 0xFD	; 253
     bee:	8f bd       	out	0x2f, r24	; 47
                SET_BIT(TCCR1B_REG, WGM12_BIT, uint8_t);
     bf0:	8e b5       	in	r24, 0x2e	; 46
     bf2:	88 60       	ori	r24, 0x08	; 8
     bf4:	8e bd       	out	0x2e, r24	; 46
                CLEAR_BIT(TCCR1B_REG, WGM13_BIT, uint8_t);
     bf6:	8e b5       	in	r24, 0x2e	; 46
     bf8:	8f 7e       	andi	r24, 0xEF	; 239
     bfa:	8e bd       	out	0x2e, r24	; 46
                break;
     bfc:	06 c0       	rjmp	.+12     	; 0xc0a <Timer_enmInit+0x68>
                 * 0. Normal Mode
                 * 1. PWM, Phase Correct
                 * 2. CTC Mode
                 * 3. Fast PWM
                 */
                CLEAR_BIT(TCCR2_REG, WGM20_BIT, uint8_t);
     bfe:	85 b5       	in	r24, 0x25	; 37
     c00:	8f 7b       	andi	r24, 0xBF	; 191
     c02:	85 bd       	out	0x25, r24	; 37
                SET_BIT(TCCR2_REG, WGM21_BIT, uint8_t);
     c04:	85 b5       	in	r24, 0x25	; 37
     c06:	88 60       	ori	r24, 0x08	; 8
     c08:	85 bd       	out	0x25, r24	; 37
    }
    else
#endif /* (TIMER_ERROR_DETECT == 1) */
    /*........................................*/
    {
        for(Init_l_u8Counter = 0u; Init_l_u8Counter < TIMER_NUMBER_OF_TIMERS; Init_l_u8Counter++)
     c0a:	2e 17       	cp	r18, r30
     c0c:	3f 07       	cpc	r19, r31
     c0e:	e1 f6       	brne	.-72     	; 0xbc8 <Timer_enmInit+0x26>
     c10:	05 c0       	rjmp	.+10     	; 0xc1c <Timer_enmInit+0x7a>
    /*........................................*/
#if(TIMER_ERROR_DETECT == 1)
    /* check for any error */
    for(Init_l_u8Counter = 0u; Init_l_u8Counter < TIMER_NUMBER_OF_TIMERS; Init_l_u8Counter++)
    {
        switch(Timer_enmConfiguration_arr[Init_l_u8Counter])
     c12:	80 91 e5 00 	lds	r24, 0x00E5	; 0x8000e5 <Timer_enmConfiguration_arr+0x1>
     c16:	83 30       	cpi	r24, 0x03	; 3
     c18:	58 f2       	brcs	.-106    	; 0xbb0 <Timer_enmInit+0xe>
     c1a:	ce cf       	rjmp	.-100    	; 0xbb8 <Timer_enmInit+0x16>
                break;
            }
        }
    }
    return Init_l_enmReturnValue;
}
     c1c:	8c 2f       	mov	r24, r28
     c1e:	cf 91       	pop	r28
     c20:	08 95       	ret

00000c22 <Timer_enmStart>:
 * return:              function state
 * remarks:             none
 * example:             none
 *......................................................................................*/
Timer_enmStatus_t Timer_enmStart(Timer_enmName_t a_enmName, Timer_enmPeriod_t a_enmPeriod, void(*a_vCallBackFunction_ptr)(void))
{
     c22:	cf 93       	push	r28
#if(TIMER_ERROR_DETECT == 1)
    /* check for any error */
#if(MCU_FREQUENCY != 8000000)
    Start_l_enmReturnValue = TIMER_NOT_OK;
#endif /* (MCU_FREQUENCY != 8000000) */
    if(a_vCallBackFunction_ptr == NULL_POINTER)
     c24:	41 15       	cp	r20, r1
     c26:	51 05       	cpc	r21, r1
     c28:	79 f0       	breq	.+30     	; 0xc48 <Timer_enmStart+0x26>
    {
        Start_l_enmReturnValue = TIMER_NOT_OK;
    }
    else if(a_enmPeriod == TIMER_PERIOD_1_SECOND)
     c2a:	62 30       	cpi	r22, 0x02	; 2
     c2c:	09 f0       	breq	.+2      	; 0xc30 <Timer_enmStart+0xe>
     c2e:	47 c0       	rjmp	.+142    	; 0xcbe <Timer_enmStart+0x9c>
    {
        if(Timer_enmConfiguration_arr[a_enmName] != TIMER_NUMBER_1)
     c30:	e8 2f       	mov	r30, r24
     c32:	f0 e0       	ldi	r31, 0x00	; 0
     c34:	ec 51       	subi	r30, 0x1C	; 28
     c36:	ff 4f       	sbci	r31, 0xFF	; 255
#if(MCU_FREQUENCY != 8000000)
    Start_l_enmReturnValue = TIMER_NOT_OK;
#endif /* (MCU_FREQUENCY != 8000000) */
    if(a_vCallBackFunction_ptr == NULL_POINTER)
    {
        Start_l_enmReturnValue = TIMER_NOT_OK;
     c38:	c1 e0       	ldi	r28, 0x01	; 1
     c3a:	90 81       	ld	r25, Z
     c3c:	91 30       	cpi	r25, 0x01	; 1
     c3e:	09 f4       	brne	.+2      	; 0xc42 <Timer_enmStart+0x20>
     c40:	c0 e0       	ldi	r28, 0x00	; 0
    else
    {
        /* do nothing */
    }
    /* report the error if any */
    if(Start_l_enmReturnValue != TIMER_OK)
     c42:	cc 23       	and	r28, r28
     c44:	29 f0       	breq	.+10     	; 0xc50 <Timer_enmStart+0x2e>
     c46:	01 c0       	rjmp	.+2      	; 0xc4a <Timer_enmStart+0x28>
#if(MCU_FREQUENCY != 8000000)
    Start_l_enmReturnValue = TIMER_NOT_OK;
#endif /* (MCU_FREQUENCY != 8000000) */
    if(a_vCallBackFunction_ptr == NULL_POINTER)
    {
        Start_l_enmReturnValue = TIMER_NOT_OK;
     c48:	c1 e0       	ldi	r28, 0x01	; 1
        /* do nothing */
    }
    /* report the error if any */
    if(Start_l_enmReturnValue != TIMER_OK)
    {
        DET_vReportError();
     c4a:	0e 94 57 00 	call	0xae	; 0xae <DET_vReportError>
     c4e:	45 c0       	rjmp	.+138    	; 0xcda <Timer_enmStart+0xb8>
            Start_l_OutputCompareValue = 125u;
            Start_l_PrescalerValue = TIMER_PRESCALER_64;
            break;
        case TIMER_PERIOD_1_SECOND:
            Start_l_OutputCompareValue = 31250u;
            Start_l_PrescalerValue = TIMER_PRESCALER_256;
     c50:	24 e0       	ldi	r18, 0x04	; 4
        case TIMER_PERIOD_1_MILLI_SECOND:
            Start_l_OutputCompareValue = 125u;
            Start_l_PrescalerValue = TIMER_PRESCALER_64;
            break;
        case TIMER_PERIOD_1_SECOND:
            Start_l_OutputCompareValue = 31250u;
     c52:	92 e1       	ldi	r25, 0x12	; 18
     c54:	02 c0       	rjmp	.+4      	; 0xc5a <Timer_enmStart+0x38>
            Start_l_OutputCompareValue = 80u;
            Start_l_PrescalerValue = TIMER_PRESCALER_CPU_CLOCK;
            break;
        case TIMER_PERIOD_1_MILLI_SECOND:
            Start_l_OutputCompareValue = 125u;
            Start_l_PrescalerValue = TIMER_PRESCALER_64;
     c56:	23 e0       	ldi	r18, 0x03	; 3
        case TIMER_PERIOD_10_MICRO_SECOND:
            Start_l_OutputCompareValue = 80u;
            Start_l_PrescalerValue = TIMER_PRESCALER_CPU_CLOCK;
            break;
        case TIMER_PERIOD_1_MILLI_SECOND:
            Start_l_OutputCompareValue = 125u;
     c58:	9d e7       	ldi	r25, 0x7D	; 125
         * 3- set the callback function
         * 4- enable interrupt
         * 5- set output compare value
         * 6- set prescaler and start the timer
         */
        switch(Timer_enmConfiguration_arr[a_enmName])
     c5a:	e8 2f       	mov	r30, r24
     c5c:	f0 e0       	ldi	r31, 0x00	; 0
     c5e:	ec 51       	subi	r30, 0x1C	; 28
     c60:	ff 4f       	sbci	r31, 0xFF	; 255
     c62:	80 81       	ld	r24, Z
     c64:	88 23       	and	r24, r24
     c66:	19 f0       	breq	.+6      	; 0xc6e <Timer_enmStart+0x4c>
     c68:	82 30       	cpi	r24, 0x02	; 2
     c6a:	a1 f0       	breq	.+40     	; 0xc94 <Timer_enmStart+0x72>
     c6c:	26 c0       	rjmp	.+76     	; 0xcba <Timer_enmStart+0x98>
        {
        case TIMER_NUMBER_0:
            TCNT0_REG = 0u;
     c6e:	12 be       	out	0x32, r1	; 50
            SET_BIT(TIFR_REG, OCF0_BIT, uint8_t);
     c70:	88 b7       	in	r24, 0x38	; 56
     c72:	82 60       	ori	r24, 0x02	; 2
     c74:	88 bf       	out	0x38, r24	; 56
            vTimer0CallBackFunction_ptr = a_vCallBackFunction_ptr;
     c76:	50 93 ea 01 	sts	0x01EA, r21	; 0x8001ea <vTimer0CallBackFunction_ptr+0x1>
     c7a:	40 93 e9 01 	sts	0x01E9, r20	; 0x8001e9 <vTimer0CallBackFunction_ptr>
            SET_BIT(TIMSK_REG, OCIE0_BIT, uint8_t);
     c7e:	89 b7       	in	r24, 0x39	; 57
     c80:	82 60       	ori	r24, 0x02	; 2
     c82:	89 bf       	out	0x39, r24	; 57
            OCR0_REG = (uint8_t)Start_l_OutputCompareValue;
     c84:	9c bf       	out	0x3c, r25	; 60
            WRITE_REG(TCCR0_REG,
     c86:	93 b7       	in	r25, 0x33	; 51
     c88:	98 7f       	andi	r25, 0xF8	; 248
     c8a:	82 2f       	mov	r24, r18
     c8c:	89 2b       	or	r24, r25
     c8e:	83 bf       	out	0x33, r24	; 51
                      (uint8_t)(1u<<CS00_BIT) | (uint8_t)(1u<<CS01_BIT) | (uint8_t)(1u<<CS02_BIT),
                      Start_l_PrescalerValue,
                      uint8_t);
            break;
     c90:	c0 e0       	ldi	r28, 0x00	; 0
     c92:	23 c0       	rjmp	.+70     	; 0xcda <Timer_enmStart+0xb8>
        case TIMER_NUMBER_1:
            /* to be continued */
            break;
        case TIMER_NUMBER_2:
            TCNT2_REG = 0u;
     c94:	14 bc       	out	0x24, r1	; 36
            SET_BIT(TIFR_REG, OCF2_BIT, uint8_t);
     c96:	88 b7       	in	r24, 0x38	; 56
     c98:	80 68       	ori	r24, 0x80	; 128
     c9a:	88 bf       	out	0x38, r24	; 56
            vTimer2CallBackFunction_ptr = a_vCallBackFunction_ptr;
     c9c:	50 93 e8 01 	sts	0x01E8, r21	; 0x8001e8 <vTimer2CallBackFunction_ptr+0x1>
     ca0:	40 93 e7 01 	sts	0x01E7, r20	; 0x8001e7 <vTimer2CallBackFunction_ptr>
            SET_BIT(TIMSK_REG, OCIE2_BIT, uint8_t);
     ca4:	89 b7       	in	r24, 0x39	; 57
     ca6:	80 68       	ori	r24, 0x80	; 128
     ca8:	89 bf       	out	0x39, r24	; 57
            OCR2_REG = (uint8_t)Start_l_OutputCompareValue;
     caa:	93 bd       	out	0x23, r25	; 35
            WRITE_REG(TCCR2_REG,
     cac:	95 b5       	in	r25, 0x25	; 37
     cae:	98 7f       	andi	r25, 0xF8	; 248
     cb0:	82 2f       	mov	r24, r18
     cb2:	89 2b       	or	r24, r25
     cb4:	85 bd       	out	0x25, r24	; 37
                      (uint8_t)(1u<<CS20_BIT) | (uint8_t)(1u<<CS21_BIT) | (uint8_t)(1u<<CS22_BIT),
                      Start_l_PrescalerValue,
                      uint8_t);
            break;
     cb6:	c0 e0       	ldi	r28, 0x00	; 0
     cb8:	10 c0       	rjmp	.+32     	; 0xcda <Timer_enmStart+0xb8>
         * 3- set the callback function
         * 4- enable interrupt
         * 5- set output compare value
         * 6- set prescaler and start the timer
         */
        switch(Timer_enmConfiguration_arr[a_enmName])
     cba:	c0 e0       	ldi	r28, 0x00	; 0
        default:
            /* do nothing */
            break;
        }
    }
    return Start_l_enmReturnValue;
     cbc:	0e c0       	rjmp	.+28     	; 0xcda <Timer_enmStart+0xb8>
    else
#endif /* (TIMER_ERROR_DETECT == 1) */
    /*........................................*/
    {
        /* calculate output compare and prescaler */
        switch(a_enmPeriod)
     cbe:	61 30       	cpi	r22, 0x01	; 1
     cc0:	51 f2       	breq	.-108    	; 0xc56 <Timer_enmStart+0x34>
     cc2:	28 f0       	brcs	.+10     	; 0xcce <Timer_enmStart+0xac>
     cc4:	62 30       	cpi	r22, 0x02	; 2
     cc6:	31 f4       	brne	.+12     	; 0xcd4 <Timer_enmStart+0xb2>
            Start_l_OutputCompareValue = 125u;
            Start_l_PrescalerValue = TIMER_PRESCALER_64;
            break;
        case TIMER_PERIOD_1_SECOND:
            Start_l_OutputCompareValue = 31250u;
            Start_l_PrescalerValue = TIMER_PRESCALER_256;
     cc8:	24 e0       	ldi	r18, 0x04	; 4
        case TIMER_PERIOD_1_MILLI_SECOND:
            Start_l_OutputCompareValue = 125u;
            Start_l_PrescalerValue = TIMER_PRESCALER_64;
            break;
        case TIMER_PERIOD_1_SECOND:
            Start_l_OutputCompareValue = 31250u;
     cca:	92 e1       	ldi	r25, 0x12	; 18
     ccc:	c6 cf       	rjmp	.-116    	; 0xc5a <Timer_enmStart+0x38>
        /* calculate output compare and prescaler */
        switch(a_enmPeriod)
        {
        case TIMER_PERIOD_10_MICRO_SECOND:
            Start_l_OutputCompareValue = 80u;
            Start_l_PrescalerValue = TIMER_PRESCALER_CPU_CLOCK;
     cce:	21 e0       	ldi	r18, 0x01	; 1
    {
        /* calculate output compare and prescaler */
        switch(a_enmPeriod)
        {
        case TIMER_PERIOD_10_MICRO_SECOND:
            Start_l_OutputCompareValue = 80u;
     cd0:	90 e5       	ldi	r25, 0x50	; 80
     cd2:	c3 cf       	rjmp	.-122    	; 0xc5a <Timer_enmStart+0x38>
 * example:             none
 *......................................................................................*/
Timer_enmStatus_t Timer_enmStart(Timer_enmName_t a_enmName, Timer_enmPeriod_t a_enmPeriod, void(*a_vCallBackFunction_ptr)(void))
{
    uint16_t Start_l_OutputCompareValue = DUMMY;
    Timer_enmPrescaler_t Start_l_PrescalerValue = (Timer_enmPrescaler_t)DUMMY;
     cd4:	20 e0       	ldi	r18, 0x00	; 0
 * remarks:             none
 * example:             none
 *......................................................................................*/
Timer_enmStatus_t Timer_enmStart(Timer_enmName_t a_enmName, Timer_enmPeriod_t a_enmPeriod, void(*a_vCallBackFunction_ptr)(void))
{
    uint16_t Start_l_OutputCompareValue = DUMMY;
     cd6:	90 e0       	ldi	r25, 0x00	; 0
     cd8:	c0 cf       	rjmp	.-128    	; 0xc5a <Timer_enmStart+0x38>
            /* do nothing */
            break;
        }
    }
    return Start_l_enmReturnValue;
}
     cda:	8c 2f       	mov	r24, r28
     cdc:	cf 91       	pop	r28
     cde:	08 95       	ret

00000ce0 <Timer_enmDelayBlocking>:
 * return:              none
 * remarks:             none
 * example:             none
 *......................................................................................*/
Timer_enmStatus_t Timer_enmDelayBlocking(Timer_enmName_t a_enmName, Timer_enmPeriod_t a_enmPeriod, uint64_t a_u64Delay)
{
     ce0:	4f 92       	push	r4
     ce2:	5f 92       	push	r5
     ce4:	6f 92       	push	r6
     ce6:	7f 92       	push	r7
     ce8:	8f 92       	push	r8
     cea:	9f 92       	push	r9
     cec:	af 92       	push	r10
     cee:	bf 92       	push	r11
     cf0:	cf 92       	push	r12
     cf2:	df 92       	push	r13
     cf4:	ef 92       	push	r14
     cf6:	ff 92       	push	r15
     cf8:	0f 93       	push	r16
     cfa:	1f 93       	push	r17
     cfc:	cf 93       	push	r28
     cfe:	df 93       	push	r29
     d00:	cd b7       	in	r28, 0x3d	; 61
     d02:	de b7       	in	r29, 0x3e	; 62
     d04:	28 97       	sbiw	r28, 0x08	; 8
     d06:	0f b6       	in	r0, 0x3f	; 63
     d08:	f8 94       	cli
     d0a:	de bf       	out	0x3e, r29	; 62
     d0c:	0f be       	out	0x3f, r0	; 63
     d0e:	cd bf       	out	0x3d, r28	; 61
     d10:	5e 2c       	mov	r5, r14
     d12:	6f 2c       	mov	r6, r15
     d14:	70 2e       	mov	r7, r16
     d16:	81 2e       	mov	r8, r17
     d18:	92 2e       	mov	r9, r18
     d1a:	43 2e       	mov	r4, r19
     d1c:	f4 2f       	mov	r31, r20
     d1e:	e5 2f       	mov	r30, r21
    volatile uint64_t DelayBlocking_l_u64Counter = DUMMY;
     d20:	19 82       	std	Y+1, r1	; 0x01
     d22:	1a 82       	std	Y+2, r1	; 0x02
     d24:	1b 82       	std	Y+3, r1	; 0x03
     d26:	1c 82       	std	Y+4, r1	; 0x04
     d28:	1d 82       	std	Y+5, r1	; 0x05
     d2a:	1e 82       	std	Y+6, r1	; 0x06
     d2c:	1f 82       	std	Y+7, r1	; 0x07
     d2e:	18 86       	std	Y+8, r1	; 0x08
    else
#endif /* (TIMER_ERROR_DETECT == 1) */
    /*........................................*/
    {
        /* calculate output compare and prescaler */
        switch(a_enmPeriod)
     d30:	61 30       	cpi	r22, 0x01	; 1
     d32:	39 f0       	breq	.+14     	; 0xd42 <Timer_enmDelayBlocking+0x62>
     d34:	18 f0       	brcs	.+6      	; 0xd3c <Timer_enmDelayBlocking+0x5c>
     d36:	62 30       	cpi	r22, 0x02	; 2
     d38:	39 f0       	breq	.+14     	; 0xd48 <Timer_enmDelayBlocking+0x68>
     d3a:	09 c0       	rjmp	.+18     	; 0xd4e <Timer_enmDelayBlocking+0x6e>
        {
        case TIMER_PERIOD_10_MICRO_SECOND:
            DelayBlocking_l_OutputCompareValue = 80u;
            DelayBlocking_l_PrescalerValue = TIMER_PRESCALER_CPU_CLOCK;
     d3c:	21 e0       	ldi	r18, 0x01	; 1
    {
        /* calculate output compare and prescaler */
        switch(a_enmPeriod)
        {
        case TIMER_PERIOD_10_MICRO_SECOND:
            DelayBlocking_l_OutputCompareValue = 80u;
     d3e:	30 e5       	ldi	r19, 0x50	; 80
     d40:	08 c0       	rjmp	.+16     	; 0xd52 <Timer_enmDelayBlocking+0x72>
            DelayBlocking_l_PrescalerValue = TIMER_PRESCALER_CPU_CLOCK;
            break;
        case TIMER_PERIOD_1_MILLI_SECOND:
            DelayBlocking_l_OutputCompareValue = 250u;
            DelayBlocking_l_PrescalerValue = TIMER_PRESCALER_64;
     d42:	23 e0       	ldi	r18, 0x03	; 3
        case TIMER_PERIOD_10_MICRO_SECOND:
            DelayBlocking_l_OutputCompareValue = 80u;
            DelayBlocking_l_PrescalerValue = TIMER_PRESCALER_CPU_CLOCK;
            break;
        case TIMER_PERIOD_1_MILLI_SECOND:
            DelayBlocking_l_OutputCompareValue = 250u;
     d44:	3a ef       	ldi	r19, 0xFA	; 250
            DelayBlocking_l_PrescalerValue = TIMER_PRESCALER_64;
            break;
     d46:	05 c0       	rjmp	.+10     	; 0xd52 <Timer_enmDelayBlocking+0x72>
        case TIMER_PERIOD_1_SECOND:
            DelayBlocking_l_OutputCompareValue = 31250u;
            DelayBlocking_l_PrescalerValue = TIMER_PRESCALER_256;
     d48:	24 e0       	ldi	r18, 0x04	; 4
        case TIMER_PERIOD_1_MILLI_SECOND:
            DelayBlocking_l_OutputCompareValue = 250u;
            DelayBlocking_l_PrescalerValue = TIMER_PRESCALER_64;
            break;
        case TIMER_PERIOD_1_SECOND:
            DelayBlocking_l_OutputCompareValue = 31250u;
     d4a:	32 e1       	ldi	r19, 0x12	; 18
            DelayBlocking_l_PrescalerValue = TIMER_PRESCALER_256;
            break;
     d4c:	02 c0       	rjmp	.+4      	; 0xd52 <Timer_enmDelayBlocking+0x72>
 *......................................................................................*/
Timer_enmStatus_t Timer_enmDelayBlocking(Timer_enmName_t a_enmName, Timer_enmPeriod_t a_enmPeriod, uint64_t a_u64Delay)
{
    volatile uint64_t DelayBlocking_l_u64Counter = DUMMY;
    uint16_t DelayBlocking_l_OutputCompareValue = DUMMY;
    Timer_enmPrescaler_t DelayBlocking_l_PrescalerValue = (Timer_enmPrescaler_t)DUMMY;
     d4e:	20 e0       	ldi	r18, 0x00	; 0
 * example:             none
 *......................................................................................*/
Timer_enmStatus_t Timer_enmDelayBlocking(Timer_enmName_t a_enmName, Timer_enmPeriod_t a_enmPeriod, uint64_t a_u64Delay)
{
    volatile uint64_t DelayBlocking_l_u64Counter = DUMMY;
    uint16_t DelayBlocking_l_OutputCompareValue = DUMMY;
     d50:	30 e0       	ldi	r19, 0x00	; 0
         * 5- wait for flag to rise
         * 6- clear flag (by writing 1 !!)
         * 7- update counter and loop
         * 8- stop the timer
         */
        switch(Timer_enmConfiguration_arr[a_enmName])
     d52:	90 e0       	ldi	r25, 0x00	; 0
     d54:	8c 51       	subi	r24, 0x1C	; 28
     d56:	9f 4f       	sbci	r25, 0xFF	; 255
     d58:	dc 01       	movw	r26, r24
     d5a:	8c 91       	ld	r24, X
     d5c:	88 23       	and	r24, r24
     d5e:	21 f0       	breq	.+8      	; 0xd68 <Timer_enmDelayBlocking+0x88>
     d60:	82 30       	cpi	r24, 0x02	; 2
     d62:	09 f4       	brne	.+2      	; 0xd66 <Timer_enmDelayBlocking+0x86>
     d64:	57 c0       	rjmp	.+174    	; 0xe14 <Timer_enmDelayBlocking+0x134>
     d66:	ab c0       	rjmp	.+342    	; 0xebe <Timer_enmDelayBlocking+0x1de>
        {
        case TIMER_NUMBER_0:
            TCNT0_REG = 0u;
     d68:	12 be       	out	0x32, r1	; 50
            SET_BIT(TIFR_REG, OCF0_BIT, uint8_t);
     d6a:	88 b7       	in	r24, 0x38	; 56
     d6c:	82 60       	ori	r24, 0x02	; 2
     d6e:	88 bf       	out	0x38, r24	; 56
            OCR0_REG = (uint8_t)DelayBlocking_l_OutputCompareValue;
     d70:	3c bf       	out	0x3c, r19	; 60
            WRITE_REG(TCCR0_REG,
     d72:	93 b7       	in	r25, 0x33	; 51
     d74:	98 7f       	andi	r25, 0xF8	; 248
     d76:	82 2f       	mov	r24, r18
     d78:	89 2b       	or	r24, r25
     d7a:	83 bf       	out	0x33, r24	; 51
                      (uint8_t)(1u<<CS00_BIT) | (uint8_t)(1u<<CS01_BIT) | (uint8_t)(1u<<CS02_BIT),
                      DelayBlocking_l_PrescalerValue,
                      uint8_t);
            for(DelayBlocking_l_u64Counter = 0u; DelayBlocking_l_u64Counter < a_u64Delay; DelayBlocking_l_u64Counter++)
     d7c:	19 82       	std	Y+1, r1	; 0x01
     d7e:	1a 82       	std	Y+2, r1	; 0x02
     d80:	1b 82       	std	Y+3, r1	; 0x03
     d82:	1c 82       	std	Y+4, r1	; 0x04
     d84:	1d 82       	std	Y+5, r1	; 0x05
     d86:	1e 82       	std	Y+6, r1	; 0x06
     d88:	1f 82       	std	Y+7, r1	; 0x07
     d8a:	18 86       	std	Y+8, r1	; 0x08
     d8c:	a9 80       	ldd	r10, Y+1	; 0x01
     d8e:	ba 80       	ldd	r11, Y+2	; 0x02
     d90:	cb 80       	ldd	r12, Y+3	; 0x03
     d92:	dc 80       	ldd	r13, Y+4	; 0x04
     d94:	ed 80       	ldd	r14, Y+5	; 0x05
     d96:	fe 80       	ldd	r15, Y+6	; 0x06
     d98:	0f 81       	ldd	r16, Y+7	; 0x07
     d9a:	18 85       	ldd	r17, Y+8	; 0x08
     d9c:	25 2d       	mov	r18, r5
     d9e:	36 2d       	mov	r19, r6
     da0:	47 2d       	mov	r20, r7
     da2:	58 2d       	mov	r21, r8
     da4:	69 2d       	mov	r22, r9
     da6:	74 2d       	mov	r23, r4
     da8:	8f 2f       	mov	r24, r31
     daa:	9e 2f       	mov	r25, r30
     dac:	0e 94 04 08 	call	0x1008	; 0x1008 <__cmpdi2>
     db0:	69 f1       	breq	.+90     	; 0xe0c <Timer_enmDelayBlocking+0x12c>
     db2:	60 f1       	brcs	.+88     	; 0xe0c <Timer_enmDelayBlocking+0x12c>
            {
                while(GET_BIT(TIFR_REG, OCF0_BIT, uint8_t) == 0u);
     db4:	08 b6       	in	r0, 0x38	; 56
     db6:	01 fe       	sbrs	r0, 1
     db8:	fd cf       	rjmp	.-6      	; 0xdb4 <Timer_enmDelayBlocking+0xd4>
                SET_BIT(TIFR_REG, OCF0_BIT, uint8_t);
     dba:	88 b7       	in	r24, 0x38	; 56
     dbc:	82 60       	ori	r24, 0x02	; 2
     dbe:	88 bf       	out	0x38, r24	; 56
            OCR0_REG = (uint8_t)DelayBlocking_l_OutputCompareValue;
            WRITE_REG(TCCR0_REG,
                      (uint8_t)(1u<<CS00_BIT) | (uint8_t)(1u<<CS01_BIT) | (uint8_t)(1u<<CS02_BIT),
                      DelayBlocking_l_PrescalerValue,
                      uint8_t);
            for(DelayBlocking_l_u64Counter = 0u; DelayBlocking_l_u64Counter < a_u64Delay; DelayBlocking_l_u64Counter++)
     dc0:	29 81       	ldd	r18, Y+1	; 0x01
     dc2:	3a 81       	ldd	r19, Y+2	; 0x02
     dc4:	4b 81       	ldd	r20, Y+3	; 0x03
     dc6:	5c 81       	ldd	r21, Y+4	; 0x04
     dc8:	6d 81       	ldd	r22, Y+5	; 0x05
     dca:	7e 81       	ldd	r23, Y+6	; 0x06
     dcc:	8f 81       	ldd	r24, Y+7	; 0x07
     dce:	98 85       	ldd	r25, Y+8	; 0x08
     dd0:	a1 e0       	ldi	r26, 0x01	; 1
     dd2:	0e 94 f8 07 	call	0xff0	; 0xff0 <__adddi3_s8>
     dd6:	29 83       	std	Y+1, r18	; 0x01
     dd8:	3a 83       	std	Y+2, r19	; 0x02
     dda:	4b 83       	std	Y+3, r20	; 0x03
     ddc:	5c 83       	std	Y+4, r21	; 0x04
     dde:	6d 83       	std	Y+5, r22	; 0x05
     de0:	7e 83       	std	Y+6, r23	; 0x06
     de2:	8f 83       	std	Y+7, r24	; 0x07
     de4:	98 87       	std	Y+8, r25	; 0x08
     de6:	29 81       	ldd	r18, Y+1	; 0x01
     de8:	3a 81       	ldd	r19, Y+2	; 0x02
     dea:	4b 81       	ldd	r20, Y+3	; 0x03
     dec:	5c 81       	ldd	r21, Y+4	; 0x04
     dee:	6d 81       	ldd	r22, Y+5	; 0x05
     df0:	7e 81       	ldd	r23, Y+6	; 0x06
     df2:	8f 81       	ldd	r24, Y+7	; 0x07
     df4:	98 85       	ldd	r25, Y+8	; 0x08
     df6:	a5 2c       	mov	r10, r5
     df8:	b6 2c       	mov	r11, r6
     dfa:	c7 2c       	mov	r12, r7
     dfc:	d8 2c       	mov	r13, r8
     dfe:	e9 2c       	mov	r14, r9
     e00:	f4 2c       	mov	r15, r4
     e02:	0f 2f       	mov	r16, r31
     e04:	1e 2f       	mov	r17, r30
     e06:	0e 94 04 08 	call	0x1008	; 0x1008 <__cmpdi2>
     e0a:	a0 f2       	brcs	.-88     	; 0xdb4 <Timer_enmDelayBlocking+0xd4>
            {
                while(GET_BIT(TIFR_REG, OCF0_BIT, uint8_t) == 0u);
                SET_BIT(TIFR_REG, OCF0_BIT, uint8_t);
            }
            WRITE_REG(TCCR0_REG,
     e0c:	83 b7       	in	r24, 0x33	; 51
     e0e:	88 7f       	andi	r24, 0xF8	; 248
     e10:	83 bf       	out	0x33, r24	; 51
                      (uint8_t)(1u<<CS00_BIT) | (uint8_t)(1u<<CS01_BIT) | (uint8_t)(1u<<CS02_BIT),
                      TIMER_PRESCALER_NO_CLOCK,
                      uint8_t);
            break;
     e12:	55 c0       	rjmp	.+170    	; 0xebe <Timer_enmDelayBlocking+0x1de>
        case TIMER_NUMBER_1:
            /* to be continued */
            break;
        case TIMER_NUMBER_2:
            TCNT2_REG = 0u;
     e14:	14 bc       	out	0x24, r1	; 36
            SET_BIT(TIFR_REG, OCF2_BIT, uint8_t);
     e16:	88 b7       	in	r24, 0x38	; 56
     e18:	80 68       	ori	r24, 0x80	; 128
     e1a:	88 bf       	out	0x38, r24	; 56
            OCR2_REG = (uint8_t)DelayBlocking_l_OutputCompareValue;
     e1c:	33 bd       	out	0x23, r19	; 35
            WRITE_REG(TCCR2_REG,
     e1e:	85 b5       	in	r24, 0x25	; 37
     e20:	88 7f       	andi	r24, 0xF8	; 248
     e22:	82 2b       	or	r24, r18
     e24:	85 bd       	out	0x25, r24	; 37
                      (uint8_t)(1u<<CS20_BIT) | (uint8_t)(1u<<CS21_BIT) | (uint8_t)(1u<<CS22_BIT),
                      DelayBlocking_l_PrescalerValue,
                      uint8_t);
            for(DelayBlocking_l_u64Counter = 0u; DelayBlocking_l_u64Counter < a_u64Delay; DelayBlocking_l_u64Counter++)
     e26:	19 82       	std	Y+1, r1	; 0x01
     e28:	1a 82       	std	Y+2, r1	; 0x02
     e2a:	1b 82       	std	Y+3, r1	; 0x03
     e2c:	1c 82       	std	Y+4, r1	; 0x04
     e2e:	1d 82       	std	Y+5, r1	; 0x05
     e30:	1e 82       	std	Y+6, r1	; 0x06
     e32:	1f 82       	std	Y+7, r1	; 0x07
     e34:	18 86       	std	Y+8, r1	; 0x08
     e36:	a9 80       	ldd	r10, Y+1	; 0x01
     e38:	ba 80       	ldd	r11, Y+2	; 0x02
     e3a:	cb 80       	ldd	r12, Y+3	; 0x03
     e3c:	dc 80       	ldd	r13, Y+4	; 0x04
     e3e:	ed 80       	ldd	r14, Y+5	; 0x05
     e40:	fe 80       	ldd	r15, Y+6	; 0x06
     e42:	0f 81       	ldd	r16, Y+7	; 0x07
     e44:	18 85       	ldd	r17, Y+8	; 0x08
     e46:	25 2d       	mov	r18, r5
     e48:	36 2d       	mov	r19, r6
     e4a:	47 2d       	mov	r20, r7
     e4c:	58 2d       	mov	r21, r8
     e4e:	69 2d       	mov	r22, r9
     e50:	74 2d       	mov	r23, r4
     e52:	8f 2f       	mov	r24, r31
     e54:	9e 2f       	mov	r25, r30
     e56:	0e 94 04 08 	call	0x1008	; 0x1008 <__cmpdi2>
     e5a:	71 f1       	breq	.+92     	; 0xeb8 <Timer_enmDelayBlocking+0x1d8>
     e5c:	68 f1       	brcs	.+90     	; 0xeb8 <Timer_enmDelayBlocking+0x1d8>
            {
                while(GET_BIT(TIFR_REG, OCF2_BIT, uint8_t) == 0u);
     e5e:	08 b6       	in	r0, 0x38	; 56
     e60:	07 fe       	sbrs	r0, 7
     e62:	fd cf       	rjmp	.-6      	; 0xe5e <Timer_enmDelayBlocking+0x17e>
                SET_BIT(TIFR_REG, OCF2_BIT, uint8_t);
     e64:	88 b7       	in	r24, 0x38	; 56
     e66:	80 68       	ori	r24, 0x80	; 128
     e68:	88 bf       	out	0x38, r24	; 56
            OCR2_REG = (uint8_t)DelayBlocking_l_OutputCompareValue;
            WRITE_REG(TCCR2_REG,
                      (uint8_t)(1u<<CS20_BIT) | (uint8_t)(1u<<CS21_BIT) | (uint8_t)(1u<<CS22_BIT),
                      DelayBlocking_l_PrescalerValue,
                      uint8_t);
            for(DelayBlocking_l_u64Counter = 0u; DelayBlocking_l_u64Counter < a_u64Delay; DelayBlocking_l_u64Counter++)
     e6a:	29 81       	ldd	r18, Y+1	; 0x01
     e6c:	3a 81       	ldd	r19, Y+2	; 0x02
     e6e:	4b 81       	ldd	r20, Y+3	; 0x03
     e70:	5c 81       	ldd	r21, Y+4	; 0x04
     e72:	6d 81       	ldd	r22, Y+5	; 0x05
     e74:	7e 81       	ldd	r23, Y+6	; 0x06
     e76:	8f 81       	ldd	r24, Y+7	; 0x07
     e78:	98 85       	ldd	r25, Y+8	; 0x08
     e7a:	a1 e0       	ldi	r26, 0x01	; 1
     e7c:	0e 94 f8 07 	call	0xff0	; 0xff0 <__adddi3_s8>
     e80:	29 83       	std	Y+1, r18	; 0x01
     e82:	3a 83       	std	Y+2, r19	; 0x02
     e84:	4b 83       	std	Y+3, r20	; 0x03
     e86:	5c 83       	std	Y+4, r21	; 0x04
     e88:	6d 83       	std	Y+5, r22	; 0x05
     e8a:	7e 83       	std	Y+6, r23	; 0x06
     e8c:	8f 83       	std	Y+7, r24	; 0x07
     e8e:	98 87       	std	Y+8, r25	; 0x08
     e90:	a9 80       	ldd	r10, Y+1	; 0x01
     e92:	ba 80       	ldd	r11, Y+2	; 0x02
     e94:	cb 80       	ldd	r12, Y+3	; 0x03
     e96:	dc 80       	ldd	r13, Y+4	; 0x04
     e98:	ed 80       	ldd	r14, Y+5	; 0x05
     e9a:	fe 80       	ldd	r15, Y+6	; 0x06
     e9c:	0f 81       	ldd	r16, Y+7	; 0x07
     e9e:	18 85       	ldd	r17, Y+8	; 0x08
     ea0:	25 2d       	mov	r18, r5
     ea2:	36 2d       	mov	r19, r6
     ea4:	47 2d       	mov	r20, r7
     ea6:	58 2d       	mov	r21, r8
     ea8:	69 2d       	mov	r22, r9
     eaa:	74 2d       	mov	r23, r4
     eac:	8f 2f       	mov	r24, r31
     eae:	9e 2f       	mov	r25, r30
     eb0:	0e 94 04 08 	call	0x1008	; 0x1008 <__cmpdi2>
     eb4:	09 f0       	breq	.+2      	; 0xeb8 <Timer_enmDelayBlocking+0x1d8>
     eb6:	98 f6       	brcc	.-90     	; 0xe5e <Timer_enmDelayBlocking+0x17e>
            {
                while(GET_BIT(TIFR_REG, OCF2_BIT, uint8_t) == 0u);
                SET_BIT(TIFR_REG, OCF2_BIT, uint8_t);
            }
            WRITE_REG(TCCR2_REG,
     eb8:	85 b5       	in	r24, 0x25	; 37
     eba:	88 7f       	andi	r24, 0xF8	; 248
     ebc:	85 bd       	out	0x25, r24	; 37
            /* do nothing */
            break;
        }
    }
    return DelayBlocking_l_enmReturnValue;
}
     ebe:	80 e0       	ldi	r24, 0x00	; 0
     ec0:	28 96       	adiw	r28, 0x08	; 8
     ec2:	0f b6       	in	r0, 0x3f	; 63
     ec4:	f8 94       	cli
     ec6:	de bf       	out	0x3e, r29	; 62
     ec8:	0f be       	out	0x3f, r0	; 63
     eca:	cd bf       	out	0x3d, r28	; 61
     ecc:	df 91       	pop	r29
     ece:	cf 91       	pop	r28
     ed0:	1f 91       	pop	r17
     ed2:	0f 91       	pop	r16
     ed4:	ff 90       	pop	r15
     ed6:	ef 90       	pop	r14
     ed8:	df 90       	pop	r13
     eda:	cf 90       	pop	r12
     edc:	bf 90       	pop	r11
     ede:	af 90       	pop	r10
     ee0:	9f 90       	pop	r9
     ee2:	8f 90       	pop	r8
     ee4:	7f 90       	pop	r7
     ee6:	6f 90       	pop	r6
     ee8:	5f 90       	pop	r5
     eea:	4f 90       	pop	r4
     eec:	08 95       	ret

00000eee <__vector_10>:
 * return:              none
 * remarks:             none
 * example:             none
 *......................................................................................*/
void __vector_10(void)
{
     eee:	1f 92       	push	r1
     ef0:	0f 92       	push	r0
     ef2:	0f b6       	in	r0, 0x3f	; 63
     ef4:	0f 92       	push	r0
     ef6:	11 24       	eor	r1, r1
     ef8:	2f 93       	push	r18
     efa:	3f 93       	push	r19
     efc:	4f 93       	push	r20
     efe:	5f 93       	push	r21
     f00:	6f 93       	push	r22
     f02:	7f 93       	push	r23
     f04:	8f 93       	push	r24
     f06:	9f 93       	push	r25
     f08:	af 93       	push	r26
     f0a:	bf 93       	push	r27
     f0c:	ef 93       	push	r30
     f0e:	ff 93       	push	r31
    vTimer0CallBackFunction_ptr();
     f10:	e0 91 e9 01 	lds	r30, 0x01E9	; 0x8001e9 <vTimer0CallBackFunction_ptr>
     f14:	f0 91 ea 01 	lds	r31, 0x01EA	; 0x8001ea <vTimer0CallBackFunction_ptr+0x1>
     f18:	09 95       	icall
}
     f1a:	ff 91       	pop	r31
     f1c:	ef 91       	pop	r30
     f1e:	bf 91       	pop	r27
     f20:	af 91       	pop	r26
     f22:	9f 91       	pop	r25
     f24:	8f 91       	pop	r24
     f26:	7f 91       	pop	r23
     f28:	6f 91       	pop	r22
     f2a:	5f 91       	pop	r21
     f2c:	4f 91       	pop	r20
     f2e:	3f 91       	pop	r19
     f30:	2f 91       	pop	r18
     f32:	0f 90       	pop	r0
     f34:	0f be       	out	0x3f, r0	; 63
     f36:	0f 90       	pop	r0
     f38:	1f 90       	pop	r1
     f3a:	18 95       	reti

00000f3c <__vector_4>:
 * return:              none
 * remarks:             none
 * example:             none
 *......................................................................................*/
void __vector_4(void)
{
     f3c:	1f 92       	push	r1
     f3e:	0f 92       	push	r0
     f40:	0f b6       	in	r0, 0x3f	; 63
     f42:	0f 92       	push	r0
     f44:	11 24       	eor	r1, r1
     f46:	2f 93       	push	r18
     f48:	3f 93       	push	r19
     f4a:	4f 93       	push	r20
     f4c:	5f 93       	push	r21
     f4e:	6f 93       	push	r22
     f50:	7f 93       	push	r23
     f52:	8f 93       	push	r24
     f54:	9f 93       	push	r25
     f56:	af 93       	push	r26
     f58:	bf 93       	push	r27
     f5a:	ef 93       	push	r30
     f5c:	ff 93       	push	r31
    vTimer2CallBackFunction_ptr();
     f5e:	e0 91 e7 01 	lds	r30, 0x01E7	; 0x8001e7 <vTimer2CallBackFunction_ptr>
     f62:	f0 91 e8 01 	lds	r31, 0x01E8	; 0x8001e8 <vTimer2CallBackFunction_ptr+0x1>
     f66:	09 95       	icall
}
     f68:	ff 91       	pop	r31
     f6a:	ef 91       	pop	r30
     f6c:	bf 91       	pop	r27
     f6e:	af 91       	pop	r26
     f70:	9f 91       	pop	r25
     f72:	8f 91       	pop	r24
     f74:	7f 91       	pop	r23
     f76:	6f 91       	pop	r22
     f78:	5f 91       	pop	r21
     f7a:	4f 91       	pop	r20
     f7c:	3f 91       	pop	r19
     f7e:	2f 91       	pop	r18
     f80:	0f 90       	pop	r0
     f82:	0f be       	out	0x3f, r0	; 63
     f84:	0f 90       	pop	r0
     f86:	1f 90       	pop	r1
     f88:	18 95       	reti

00000f8a <__udivmodhi4>:
     f8a:	aa 1b       	sub	r26, r26
     f8c:	bb 1b       	sub	r27, r27
     f8e:	51 e1       	ldi	r21, 0x11	; 17
     f90:	07 c0       	rjmp	.+14     	; 0xfa0 <__udivmodhi4_ep>

00000f92 <__udivmodhi4_loop>:
     f92:	aa 1f       	adc	r26, r26
     f94:	bb 1f       	adc	r27, r27
     f96:	a6 17       	cp	r26, r22
     f98:	b7 07       	cpc	r27, r23
     f9a:	10 f0       	brcs	.+4      	; 0xfa0 <__udivmodhi4_ep>
     f9c:	a6 1b       	sub	r26, r22
     f9e:	b7 0b       	sbc	r27, r23

00000fa0 <__udivmodhi4_ep>:
     fa0:	88 1f       	adc	r24, r24
     fa2:	99 1f       	adc	r25, r25
     fa4:	5a 95       	dec	r21
     fa6:	a9 f7       	brne	.-22     	; 0xf92 <__udivmodhi4_loop>
     fa8:	80 95       	com	r24
     faa:	90 95       	com	r25
     fac:	bc 01       	movw	r22, r24
     fae:	cd 01       	movw	r24, r26
     fb0:	08 95       	ret

00000fb2 <__divmodsi4>:
     fb2:	05 2e       	mov	r0, r21
     fb4:	97 fb       	bst	r25, 7
     fb6:	1e f4       	brtc	.+6      	; 0xfbe <__divmodsi4+0xc>
     fb8:	00 94       	com	r0
     fba:	0e 94 f0 07 	call	0xfe0	; 0xfe0 <__negsi2>
     fbe:	57 fd       	sbrc	r21, 7
     fc0:	07 d0       	rcall	.+14     	; 0xfd0 <__divmodsi4_neg2>
     fc2:	0e 94 0d 08 	call	0x101a	; 0x101a <__udivmodsi4>
     fc6:	07 fc       	sbrc	r0, 7
     fc8:	03 d0       	rcall	.+6      	; 0xfd0 <__divmodsi4_neg2>
     fca:	4e f4       	brtc	.+18     	; 0xfde <__divmodsi4_exit>
     fcc:	0c 94 f0 07 	jmp	0xfe0	; 0xfe0 <__negsi2>

00000fd0 <__divmodsi4_neg2>:
     fd0:	50 95       	com	r21
     fd2:	40 95       	com	r20
     fd4:	30 95       	com	r19
     fd6:	21 95       	neg	r18
     fd8:	3f 4f       	sbci	r19, 0xFF	; 255
     fda:	4f 4f       	sbci	r20, 0xFF	; 255
     fdc:	5f 4f       	sbci	r21, 0xFF	; 255

00000fde <__divmodsi4_exit>:
     fde:	08 95       	ret

00000fe0 <__negsi2>:
     fe0:	90 95       	com	r25
     fe2:	80 95       	com	r24
     fe4:	70 95       	com	r23
     fe6:	61 95       	neg	r22
     fe8:	7f 4f       	sbci	r23, 0xFF	; 255
     fea:	8f 4f       	sbci	r24, 0xFF	; 255
     fec:	9f 4f       	sbci	r25, 0xFF	; 255
     fee:	08 95       	ret

00000ff0 <__adddi3_s8>:
     ff0:	00 24       	eor	r0, r0
     ff2:	a7 fd       	sbrc	r26, 7
     ff4:	00 94       	com	r0
     ff6:	2a 0f       	add	r18, r26
     ff8:	30 1d       	adc	r19, r0
     ffa:	40 1d       	adc	r20, r0
     ffc:	50 1d       	adc	r21, r0
     ffe:	60 1d       	adc	r22, r0
    1000:	70 1d       	adc	r23, r0
    1002:	80 1d       	adc	r24, r0
    1004:	90 1d       	adc	r25, r0
    1006:	08 95       	ret

00001008 <__cmpdi2>:
    1008:	2a 15       	cp	r18, r10
    100a:	3b 05       	cpc	r19, r11
    100c:	4c 05       	cpc	r20, r12
    100e:	5d 05       	cpc	r21, r13
    1010:	6e 05       	cpc	r22, r14
    1012:	7f 05       	cpc	r23, r15
    1014:	80 07       	cpc	r24, r16
    1016:	91 07       	cpc	r25, r17
    1018:	08 95       	ret

0000101a <__udivmodsi4>:
    101a:	a1 e2       	ldi	r26, 0x21	; 33
    101c:	1a 2e       	mov	r1, r26
    101e:	aa 1b       	sub	r26, r26
    1020:	bb 1b       	sub	r27, r27
    1022:	fd 01       	movw	r30, r26
    1024:	0d c0       	rjmp	.+26     	; 0x1040 <__udivmodsi4_ep>

00001026 <__udivmodsi4_loop>:
    1026:	aa 1f       	adc	r26, r26
    1028:	bb 1f       	adc	r27, r27
    102a:	ee 1f       	adc	r30, r30
    102c:	ff 1f       	adc	r31, r31
    102e:	a2 17       	cp	r26, r18
    1030:	b3 07       	cpc	r27, r19
    1032:	e4 07       	cpc	r30, r20
    1034:	f5 07       	cpc	r31, r21
    1036:	20 f0       	brcs	.+8      	; 0x1040 <__udivmodsi4_ep>
    1038:	a2 1b       	sub	r26, r18
    103a:	b3 0b       	sbc	r27, r19
    103c:	e4 0b       	sbc	r30, r20
    103e:	f5 0b       	sbc	r31, r21

00001040 <__udivmodsi4_ep>:
    1040:	66 1f       	adc	r22, r22
    1042:	77 1f       	adc	r23, r23
    1044:	88 1f       	adc	r24, r24
    1046:	99 1f       	adc	r25, r25
    1048:	1a 94       	dec	r1
    104a:	69 f7       	brne	.-38     	; 0x1026 <__udivmodsi4_loop>
    104c:	60 95       	com	r22
    104e:	70 95       	com	r23
    1050:	80 95       	com	r24
    1052:	90 95       	com	r25
    1054:	9b 01       	movw	r18, r22
    1056:	ac 01       	movw	r20, r24
    1058:	bd 01       	movw	r22, r26
    105a:	cf 01       	movw	r24, r30
    105c:	08 95       	ret

0000105e <_exit>:
    105e:	f8 94       	cli

00001060 <__stop_program>:
    1060:	ff cf       	rjmp	.-2      	; 0x1060 <__stop_program>
